Archive member included because of file (symbol)

/home/alexis/dev/robotics/libs/Robotics/ActivityBot/libabdrive/cmm/libabdrive.a(abdrive.o)
                              cmm/librobo.o (_drive_speed)
/home/alexis/dev/robotics/libs/Robotics/ActivityBot/libabdrive/cmm/libabdrive.a(getticks.o)
                              cmm/calcPos.o (_drive_getTicks)
/home/alexis/dev/robotics/libs/Sensor/libping/cmm/libping.a(ping.o)
                              cmm/librobo.o (_ping_cm)
/home/alexis/dev/robotics/libs/Utility/libsimpletools/cmm//libsimpletools.a(eeprom_getByte.o)
                              /home/alexis/dev/robotics/libs/Robotics/ActivityBot/libabdrive/cmm/libabdrive.a(abdrive.o) (_ee_getByte)
/home/alexis/dev/robotics/libs/Utility/libsimpletools/cmm//libsimpletools.a(eeprom_getInt.o)
                              /home/alexis/dev/robotics/libs/Robotics/ActivityBot/libabdrive/cmm/libabdrive.a(abdrive.o) (_ee_getInt)
/home/alexis/dev/robotics/libs/Utility/libsimpletools/cmm//libsimpletools.a(eeprom_getStr.o)
                              /home/alexis/dev/robotics/libs/Robotics/ActivityBot/libabdrive/cmm/libabdrive.a(abdrive.o) (_ee_getStr)
/home/alexis/dev/robotics/libs/Utility/libsimpletools/cmm//libsimpletools.a(freqout.o)
                              cmm/librobo.o (_freqout)
/home/alexis/dev/robotics/libs/Utility/libsimpletools/cmm//libsimpletools.a(i2c_in.o)
                              /home/alexis/dev/robotics/libs/Utility/libsimpletools/cmm//libsimpletools.a(eeprom_getByte.o) (_i2c_in)
/home/alexis/dev/robotics/libs/Utility/libsimpletools/cmm//libsimpletools.a(input.o)
                              cmm/librobo.o (_input)
/home/alexis/dev/robotics/libs/Utility/libsimpletools/cmm//libsimpletools.a(low.o)
                              /home/alexis/dev/robotics/libs/Robotics/ActivityBot/libabdrive/cmm/libabdrive.a(abdrive.o) (_low)
/home/alexis/dev/robotics/libs/Utility/libsimpletools/cmm//libsimpletools.a(pause.o)
                              cmm/librobo.o (_pause)
/home/alexis/dev/robotics/libs/Utility/libsimpletools/cmm//libsimpletools.a(pulseIn.o)
                              /home/alexis/dev/robotics/libs/Sensor/libping/cmm/libping.a(ping.o) (_pulse_in)
/home/alexis/dev/robotics/libs/Utility/libsimpletools/cmm//libsimpletools.a(pulseOut.o)
                              /home/alexis/dev/robotics/libs/Sensor/libping/cmm/libping.a(ping.o) (_pulse_out)
/home/alexis/dev/robotics/libs/Utility/libsimpletools/cmm//libsimpletools.a(sddriverconfig.o)
                              cmm/calcPos.o (_sd_mount)
/home/alexis/dev/robotics/libs/Utility/libsimpletools/cmm//libsimpletools.a(setOutput.o)
                              /home/alexis/dev/robotics/libs/Utility/libsimpletools/cmm//libsimpletools.a(pulseOut.o) (_set_output)
/home/alexis/dev/robotics/libs/Utility/libsimpletools/cmm//libsimpletools.a(squareWave.o)
                              /home/alexis/dev/robotics/libs/Utility/libsimpletools/cmm//libsimpletools.a(freqout.o) (_square_wave_setup)
/home/alexis/dev/robotics/libs/Utility/libsimpletools/cmm//libsimpletools.a(timeTicks.o)
                              /home/alexis/dev/robotics/libs/Utility/libsimpletools/cmm//libsimpletools.a(pulseIn.o) (_st_iodt)
/home/alexis/dev/robotics/libs/Utility/libsimpletools/cmm//libsimpletools.a(addfiledriver.o)
                              /home/alexis/dev/robotics/libs/Utility/libsimpletools/cmm//libsimpletools.a(sddriverconfig.o) (_add_driver)
/home/alexis/dev/robotics/libs/Utility/libsimpletools/cmm//libsimpletools.a(eeprom_init.o)
                              /home/alexis/dev/robotics/libs/Utility/libsimpletools/cmm//libsimpletools.a(eeprom_getByte.o) (_ee_init)
/home/alexis/dev/robotics/libs/Utility/libsimpletools/cmm//libsimpletools.a(endianSwap.o)
                              /home/alexis/dev/robotics/libs/Utility/libsimpletools/cmm//libsimpletools.a(i2c_in.o) (_endianSwap)
/home/alexis/dev/robotics/libs/Utility/libsimpletools/cmm//libsimpletools.a(getOutput.o)
                              /home/alexis/dev/robotics/libs/Utility/libsimpletools/cmm//libsimpletools.a(pulseOut.o) (_get_output)
/home/alexis/dev/robotics/libs/Utility/libsimpletools/cmm//libsimpletools.a(getState.o)
                              /home/alexis/dev/robotics/libs/Utility/libsimpletools/cmm//libsimpletools.a(pulseIn.o) (_get_state)
/home/alexis/dev/robotics/libs/Utility/libsimpletools/cmm//libsimpletools.a(i2c_init.o)
                              /home/alexis/dev/robotics/libs/Utility/libsimpletools/cmm//libsimpletools.a(eeprom_init.o) (_i2c_newbus)
/home/alexis/dev/robotics/libs/Protocol/libsimplei2c/cmm//libsimplei2c.a(simplei2c.o)
                              /home/alexis/dev/robotics/libs/Utility/libsimpletools/cmm//libsimpletools.a(i2c_in.o) (_i2c_start)
/opt/parallax/lib/gcc/propeller-elf/4.6.1/../../../../propeller-elf/lib/cmm/short-doubles/libm.a(s_cexpf.o)
                              cmm/calcPos.o (_cexpf)
/opt/parallax/lib/gcc/propeller-elf/4.6.1/../../../../propeller-elf/lib/cmm/short-doubles/libm.a(k_sincosf.o)
                              /opt/parallax/lib/gcc/propeller-elf/4.6.1/../../../../propeller-elf/lib/cmm/short-doubles/libm.a(s_cexpf.o) (___sincosf)
/opt/parallax/lib/gcc/propeller-elf/4.6.1/../../../../propeller-elf/lib/cmm/short-doubles/libm.a(e_expf.o)
                              /opt/parallax/lib/gcc/propeller-elf/4.6.1/../../../../propeller-elf/lib/cmm/short-doubles/libm.a(s_cexpf.o) (_expf)
/opt/parallax/lib/gcc/propeller-elf/4.6.1/../../../../propeller-elf/lib/cmm/short-doubles/libm.a(e_rem_pio2f.o)
                              /opt/parallax/lib/gcc/propeller-elf/4.6.1/../../../../propeller-elf/lib/cmm/short-doubles/libm.a(k_sincosf.o) (___ieee754_rem_pio2f)
/opt/parallax/lib/gcc/propeller-elf/4.6.1/../../../../propeller-elf/lib/cmm/short-doubles/libm.a(k_rem_pio2f.o)
                              /opt/parallax/lib/gcc/propeller-elf/4.6.1/../../../../propeller-elf/lib/cmm/short-doubles/libm.a(e_rem_pio2f.o) (___kernel_rem_pio2f)
/opt/parallax/lib/gcc/propeller-elf/4.6.1/../../../../propeller-elf/lib/cmm/short-doubles/libm.a(s_floorf.o)
                              /opt/parallax/lib/gcc/propeller-elf/4.6.1/../../../../propeller-elf/lib/cmm/short-doubles/libm.a(k_rem_pio2f.o) (_floorf)
/opt/parallax/lib/gcc/propeller-elf/4.6.1/../../../../propeller-elf/lib/cmm/short-doubles/libm.a(s_scalbnf.o)
                              /opt/parallax/lib/gcc/propeller-elf/4.6.1/../../../../propeller-elf/lib/cmm/short-doubles/libm.a(k_rem_pio2f.o) (_scalbnf)
/opt/parallax/lib/gcc/propeller-elf/4.6.1/cmm/short-doubles/libgcc.a(addsf3.o)
                              cmm/calcPos.o (___addsf3)
/opt/parallax/lib/gcc/propeller-elf/4.6.1/cmm/short-doubles/libgcc.a(divsf3.o)
                              cmm/calcPos.o (___divsf3)
/opt/parallax/lib/gcc/propeller-elf/4.6.1/cmm/short-doubles/libgcc.a(eqsf2.o)
                              cmm/calcPos.o (___eqsf2)
/opt/parallax/lib/gcc/propeller-elf/4.6.1/cmm/short-doubles/libgcc.a(gesf2.o)
                              /opt/parallax/lib/gcc/propeller-elf/4.6.1/../../../../propeller-elf/lib/cmm/short-doubles/libm.a(k_rem_pio2f.o) (___gesf2)
/opt/parallax/lib/gcc/propeller-elf/4.6.1/cmm/short-doubles/libgcc.a(lesf2.o)
                              /opt/parallax/lib/gcc/propeller-elf/4.6.1/../../../../propeller-elf/lib/cmm/short-doubles/libm.a(e_expf.o) (___ltsf2)
/opt/parallax/lib/gcc/propeller-elf/4.6.1/cmm/short-doubles/libgcc.a(mulsf3.o)
                              cmm/calcPos.o (___mulsf3)
/opt/parallax/lib/gcc/propeller-elf/4.6.1/cmm/short-doubles/libgcc.a(subsf3.o)
                              cmm/calcPos.o (___subsf3)
/opt/parallax/lib/gcc/propeller-elf/4.6.1/cmm/short-doubles/libgcc.a(fixsfsi.o)
                              /opt/parallax/lib/gcc/propeller-elf/4.6.1/../../../../propeller-elf/lib/cmm/short-doubles/libm.a(k_sincosf.o) (___fixsfsi)
/opt/parallax/lib/gcc/propeller-elf/4.6.1/cmm/short-doubles/libgcc.a(floatsisf.o)
                              cmm/calcPos.o (___floatsisf)
/opt/parallax/lib/gcc/propeller-elf/4.6.1/../../../../propeller-elf/lib/cmm/short-doubles/libc.a(fopen.o)
                              cmm/calcPos.o (_fopen)
/opt/parallax/lib/gcc/propeller-elf/4.6.1/../../../../propeller-elf/lib/cmm/short-doubles/libc.a(fopen_intern.o)
                              /opt/parallax/lib/gcc/propeller-elf/4.6.1/../../../../propeller-elf/lib/cmm/short-doubles/libc.a(fopen.o) (___fopen_driver)
/opt/parallax/lib/gcc/propeller-elf/4.6.1/../../../../propeller-elf/lib/cmm/short-doubles/libc.a(fwrite.o)
                              cmm/calcPos.o (_fwrite)
/opt/parallax/lib/gcc/propeller-elf/4.6.1/../../../../propeller-elf/lib/cmm/short-doubles/libc.a(init_io.o)
                              /opt/parallax/lib/gcc/propeller-elf/4.6.1/../../../../propeller-elf/lib/cmm/short-doubles/libc.a(fopen_intern.o) (__InitIO)
/opt/parallax/lib/gcc/propeller-elf/4.6.1/../../../../propeller-elf/lib/cmm/short-doubles/libc.a(abort.o)
                              /opt/parallax/lib/gcc/propeller-elf/4.6.1/cmm/short-doubles/libgcc.a(divsf3.o) (_abort)
/opt/parallax/lib/gcc/propeller-elf/4.6.1/../../../../propeller-elf/lib/cmm/short-doubles/libc.a(thread.o)
                              /opt/parallax/lib/gcc/propeller-elf/4.6.1/cmm/short-doubles/_crt0.o (__TLS)
/opt/parallax/lib/gcc/propeller-elf/4.6.1/../../../../propeller-elf/lib/cmm/short-doubles/libc.a(cogstart.o)
                              /home/alexis/dev/robotics/libs/Robotics/ActivityBot/libabdrive/cmm/libabdrive.a(abdrive.o) (_cogstart)
/opt/parallax/lib/gcc/propeller-elf/4.6.1/../../../../propeller-elf/lib/cmm/short-doubles/libc.a(memcpy.o)
                              /home/alexis/dev/robotics/libs/Utility/libsimpletools/cmm//libsimpletools.a(i2c_in.o) (_memcpy)
/opt/parallax/lib/gcc/propeller-elf/4.6.1/../../../../propeller-elf/lib/cmm/short-doubles/libc.a(memset.o)
                              /opt/parallax/lib/gcc/propeller-elf/4.6.1/cmm/short-doubles/_crtbegin.o (_memset)
/opt/parallax/lib/gcc/propeller-elf/4.6.1/../../../../propeller-elf/lib/cmm/short-doubles/libc.a(strlen.o)
                              /opt/parallax/lib/gcc/propeller-elf/4.6.1/../../../../propeller-elf/lib/cmm/short-doubles/libc.a(fopen.o) (_strlen)
/opt/parallax/lib/gcc/propeller-elf/4.6.1/../../../../propeller-elf/lib/cmm/short-doubles/libc.a(strncmp.o)
                              /opt/parallax/lib/gcc/propeller-elf/4.6.1/../../../../propeller-elf/lib/cmm/short-doubles/libc.a(fopen.o) (_strncmp)
/opt/parallax/lib/gcc/propeller-elf/4.6.1/../../../../propeller-elf/lib/cmm/short-doubles/libc.a(SimpleSerial.o)
                              /home/alexis/dev/robotics/libs/Utility/libsimpletools/cmm//libsimpletools.a(addfiledriver.o) (__SimpleSerialDriver)
/opt/parallax/lib/gcc/propeller-elf/4.6.1/../../../../propeller-elf/lib/cmm/short-doubles/libc.a(serialparam.o)
                              /opt/parallax/lib/gcc/propeller-elf/4.6.1/../../../../propeller-elf/lib/cmm/short-doubles/libc.a(SimpleSerial.o) (__baud)
/opt/parallax/lib/gcc/propeller-elf/4.6.1/../../../../propeller-elf/lib/cmm/short-doubles/libc.a(terminal.o)
                              /opt/parallax/lib/gcc/propeller-elf/4.6.1/../../../../propeller-elf/lib/cmm/short-doubles/libc.a(SimpleSerial.o) (__term_write)
/opt/parallax/lib/gcc/propeller-elf/4.6.1/../../../../propeller-elf/lib/cmm/short-doubles/libc.a(FileDriver.o)
                              /home/alexis/dev/robotics/libs/Utility/libsimpletools/cmm//libsimpletools.a(sddriverconfig.o) (__FileDriver)
/opt/parallax/lib/gcc/propeller-elf/4.6.1/../../../../propeller-elf/lib/cmm/short-doubles/libc.a(mount.o)
                              /home/alexis/dev/robotics/libs/Utility/libsimpletools/cmm//libsimpletools.a(sddriverconfig.o) (_dfs_mount)
/opt/parallax/lib/gcc/propeller-elf/4.6.1/../../../../propeller-elf/lib/cmm/short-doubles/libc.a(dosfs.o)
                              /opt/parallax/lib/gcc/propeller-elf/4.6.1/../../../../propeller-elf/lib/cmm/short-doubles/libc.a(FileDriver.o) (_DFS_GetVolInfo)
/opt/parallax/lib/gcc/propeller-elf/4.6.1/../../../../propeller-elf/lib/cmm/short-doubles/libc.a(file_io.o)
                              /opt/parallax/lib/gcc/propeller-elf/4.6.1/../../../../propeller-elf/lib/cmm/short-doubles/libc.a(FileDriver.o) (_DFS_InitFileIO)
/opt/parallax/lib/gcc/propeller-elf/4.6.1/../../../../propeller-elf/lib/cmm/short-doubles/libc.a(load_sd_driver.o)
                              /opt/parallax/lib/gcc/propeller-elf/4.6.1/../../../../propeller-elf/lib/cmm/short-doubles/libc.a(FileDriver.o) (_LoadSDDriver)
/opt/parallax/lib/gcc/propeller-elf/4.6.1/../../../../propeller-elf/lib/cmm/short-doubles/libc.a(sd_driver.o)
                              /opt/parallax/lib/gcc/propeller-elf/4.6.1/../../../../propeller-elf/lib/cmm/short-doubles/libc.a(load_sd_driver.o) (_sd_driver_array)
/opt/parallax/lib/gcc/propeller-elf/4.6.1/../../../../propeller-elf/lib/cmm/short-doubles/libc.a(fflush.o)
                              /opt/parallax/lib/gcc/propeller-elf/4.6.1/../../../../propeller-elf/lib/cmm/short-doubles/libc.a(fopen_intern.o) (_fflush)
/opt/parallax/lib/gcc/propeller-elf/4.6.1/../../../../propeller-elf/lib/cmm/short-doubles/libc.a(malloc.o)
                              /opt/parallax/lib/gcc/propeller-elf/4.6.1/../../../../propeller-elf/lib/cmm/short-doubles/libc.a(FileDriver.o) (_malloc)
/opt/parallax/lib/gcc/propeller-elf/4.6.1/../../../../propeller-elf/lib/cmm/short-doubles/libc.a(atoi.o)
                              /opt/parallax/lib/gcc/propeller-elf/4.6.1/../../../../propeller-elf/lib/cmm/short-doubles/libc.a(SimpleSerial.o) (_atoi)
/opt/parallax/lib/gcc/propeller-elf/4.6.1/../../../../propeller-elf/lib/cmm/short-doubles/libc.a(div.o)
                              /opt/parallax/lib/gcc/propeller-elf/4.6.1/../../../../propeller-elf/lib/cmm/short-doubles/libc.a(dosfs.o) (_ldiv)
/opt/parallax/lib/gcc/propeller-elf/4.6.1/../../../../propeller-elf/lib/cmm/short-doubles/libc.a(ctype.o)
                              /opt/parallax/lib/gcc/propeller-elf/4.6.1/../../../../propeller-elf/lib/cmm/short-doubles/libc.a(atoi.o) (___ctype)
/opt/parallax/lib/gcc/propeller-elf/4.6.1/../../../../propeller-elf/lib/cmm/short-doubles/libc.a(sbrk.o)
                              /opt/parallax/lib/gcc/propeller-elf/4.6.1/../../../../propeller-elf/lib/cmm/short-doubles/libc.a(malloc.o) (__hubsbrk)
/opt/parallax/lib/gcc/propeller-elf/4.6.1/../../../../propeller-elf/lib/cmm/short-doubles/libc.a(memcmp.o)
                              /opt/parallax/lib/gcc/propeller-elf/4.6.1/../../../../propeller-elf/lib/cmm/short-doubles/libc.a(dosfs.o) (_memcmp)
/opt/parallax/lib/gcc/propeller-elf/4.6.1/../../../../propeller-elf/lib/cmm/short-doubles/libc.a(strcat.o)
                              /opt/parallax/lib/gcc/propeller-elf/4.6.1/../../../../propeller-elf/lib/cmm/short-doubles/libc.a(FileDriver.o) (_strcat)
/opt/parallax/lib/gcc/propeller-elf/4.6.1/../../../../propeller-elf/lib/cmm/short-doubles/libc.a(strcmp.o)
                              /opt/parallax/lib/gcc/propeller-elf/4.6.1/../../../../propeller-elf/lib/cmm/short-doubles/libc.a(FileDriver.o) (_strcmp)
/opt/parallax/lib/gcc/propeller-elf/4.6.1/../../../../propeller-elf/lib/cmm/short-doubles/libc.a(strcpy.o)
                              /opt/parallax/lib/gcc/propeller-elf/4.6.1/../../../../propeller-elf/lib/cmm/short-doubles/libc.a(FileDriver.o) (_strcpy)
/opt/parallax/lib/gcc/propeller-elf/4.6.1/../../../../propeller-elf/lib/cmm/short-doubles/libc.a(strncpy.o)
                              /opt/parallax/lib/gcc/propeller-elf/4.6.1/../../../../propeller-elf/lib/cmm/short-doubles/libc.a(dosfs.o) (_strncpy)

Allocating common symbols
Common symbol       size              file

_abd_speedL         0x4               /home/alexis/dev/robotics/libs/Robotics/ActivityBot/libabdrive/cmm/libabdrive.a(abdrive.o)
_abd_cntrLidx       0x4               /home/alexis/dev/robotics/libs/Robotics/ActivityBot/libabdrive/cmm/libabdrive.a(abdrive.o)
_abd_drc            0x4               /home/alexis/dev/robotics/libs/Robotics/ActivityBot/libabdrive/cmm/libabdrive.a(abdrive.o)
_st_iodt            0x4               /home/alexis/dev/robotics/libs/Utility/libsimpletools/cmm//libsimpletools.a(timeTicks.o)
_totalerror         0x4               cmm/librobo.o
_abd_us             0x4               /home/alexis/dev/robotics/libs/Robotics/ActivityBot/libabdrive/cmm/libabdrive.a(abdrive.o)
_rticks             0x4               cmm/calcPos.o
_abd_spdmL          0x1e0             /home/alexis/dev/robotics/libs/Robotics/ActivityBot/libabdrive/cmm/libabdrive.a(abdrive.o)
__servoPulseReps    0x4               /home/alexis/dev/robotics/libs/Robotics/ActivityBot/libabdrive/cmm/libabdrive.a(abdrive.o)
_abd_cntrRidx       0x4               /home/alexis/dev/robotics/libs/Robotics/ActivityBot/libabdrive/cmm/libabdrive.a(abdrive.o)
_us                 0x4               /home/alexis/dev/robotics/libs/Utility/libsimpletools/cmm//libsimpletools.a(timeTicks.o)
___stdio_lock       0x4               /opt/parallax/lib/gcc/propeller-elf/4.6.1/../../../../propeller-elf/lib/cmm/short-doubles/libc.a(fopen_intern.o)
_angleTurned        0x4               cmm/calcPos.o
_abd_spdrR          0x1e0             /home/alexis/dev/robotics/libs/Robotics/ActivityBot/libabdrive/cmm/libabdrive.a(abdrive.o)
_dfs_volinfo        0x34              /opt/parallax/lib/gcc/propeller-elf/4.6.1/../../../../propeller-elf/lib/cmm/short-doubles/libc.a(FileDriver.o)
_total_distance     0x4               cmm/calcPos.o
_st_eeprom          0x4               /home/alexis/dev/robotics/libs/Utility/libsimpletools/cmm//libsimpletools.a(eeprom_getByte.o)
_abd_iR             0x4               /home/alexis/dev/robotics/libs/Robotics/ActivityBot/libabdrive/cmm/libabdrive.a(abdrive.o)
_st_usTicks         0x4               /home/alexis/dev/robotics/libs/Utility/libsimpletools/cmm//libsimpletools.a(timeTicks.o)
_abd_pL             0x4               /home/alexis/dev/robotics/libs/Robotics/ActivityBot/libabdrive/cmm/libabdrive.a(abdrive.o)
_abd_trimFL         0x4               /home/alexis/dev/robotics/libs/Robotics/ActivityBot/libabdrive/cmm/libabdrive.a(abdrive.o)
_ms                 0x4               /home/alexis/dev/robotics/libs/Utility/libsimpletools/cmm//libsimpletools.a(timeTicks.o)
_abd_trimBL         0x4               /home/alexis/dev/robotics/libs/Robotics/ActivityBot/libabdrive/cmm/libabdrive.a(abdrive.o)
_abd_speedR         0x4               /home/alexis/dev/robotics/libs/Robotics/ActivityBot/libabdrive/cmm/libabdrive.a(abdrive.o)
_(float, int, long,...)(short)
                    0x1a0             /opt/parallax/lib/gcc/propeller-elf/4.6.1/../../../../propeller-elf/lib/cmm/short-doubles/libc.a(fopen_intern.o)
_abd_trimBR         0x4               /home/alexis/dev/robotics/libs/Robotics/ActivityBot/libabdrive/cmm/libabdrive.a(abdrive.o)
_abd_edR            0x4               /home/alexis/dev/robotics/libs/Robotics/ActivityBot/libabdrive/cmm/libabdrive.a(abdrive.o)
_st_timeout         0x4               /home/alexis/dev/robotics/libs/Utility/libsimpletools/cmm//libsimpletools.a(timeTicks.o)
_lticks             0x4               cmm/calcPos.o
_abd_elCntR         0x4               /home/alexis/dev/robotics/libs/Robotics/ActivityBot/libabdrive/cmm/libabdrive.a(abdrive.o)
_dfs_currdir        0x40              /opt/parallax/lib/gcc/propeller-elf/4.6.1/../../../../propeller-elf/lib/cmm/short-doubles/libc.a(FileDriver.o)
_abd_edL            0x4               /home/alexis/dev/robotics/libs/Robotics/ActivityBot/libabdrive/cmm/libabdrive.a(abdrive.o)
_st_eeInitFlag      0x4               /home/alexis/dev/robotics/libs/Utility/libsimpletools/cmm//libsimpletools.a(eeprom_getByte.o)
_current_pos        0xc               cmm/calcPos.o
_abd_pR             0x4               /home/alexis/dev/robotics/libs/Robotics/ActivityBot/libabdrive/cmm/libabdrive.a(abdrive.o)
_abd_trimFR         0x4               /home/alexis/dev/robotics/libs/Robotics/ActivityBot/libabdrive/cmm/libabdrive.a(abdrive.o)
_abd_elCntL         0x4               /home/alexis/dev/robotics/libs/Robotics/ActivityBot/libabdrive/cmm/libabdrive.a(abdrive.o)
_abd_iL             0x4               /home/alexis/dev/robotics/libs/Robotics/ActivityBot/libabdrive/cmm/libabdrive.a(abdrive.o)
_st_pauseTicks      0x4               /home/alexis/dev/robotics/libs/Utility/libsimpletools/cmm//libsimpletools.a(timeTicks.o)
_preverror          0x4               cmm/librobo.o
_abd_spdmR          0x1e0             /home/alexis/dev/robotics/libs/Robotics/ActivityBot/libabdrive/cmm/libabdrive.a(abdrive.o)
_st_msTicks         0x4               /home/alexis/dev/robotics/libs/Utility/libsimpletools/cmm//libsimpletools.a(timeTicks.o)
_abd_spdrL          0x1e0             /home/alexis/dev/robotics/libs/Robotics/ActivityBot/libabdrive/cmm/libabdrive.a(abdrive.o)
_abd_dlc            0x4               /home/alexis/dev/robotics/libs/Robotics/ActivityBot/libabdrive/cmm/libabdrive.a(abdrive.o)
_abd_eeAddr         0x4               /home/alexis/dev/robotics/libs/Robotics/ActivityBot/libabdrive/cmm/libabdrive.a(abdrive.o)

Discarded input sections

 .text          0x0000000000000000        0x0 /opt/parallax/lib/gcc/propeller-elf/4.6.1/cmm/short-doubles/spinboot.o
 .data          0x0000000000000000        0x0 /opt/parallax/lib/gcc/propeller-elf/4.6.1/cmm/short-doubles/spinboot.o
 .bss           0x0000000000000000        0x0 /opt/parallax/lib/gcc/propeller-elf/4.6.1/cmm/short-doubles/spinboot.o
 .text          0x0000000000000000        0x0 /opt/parallax/lib/gcc/propeller-elf/4.6.1/cmm/short-doubles/_crt0.o
 .data          0x0000000000000000        0x0 /opt/parallax/lib/gcc/propeller-elf/4.6.1/cmm/short-doubles/_crt0.o
 .bss           0x0000000000000000        0x0 /opt/parallax/lib/gcc/propeller-elf/4.6.1/cmm/short-doubles/_crt0.o
 .text          0x0000000000000000        0x0 /opt/parallax/lib/gcc/propeller-elf/4.6.1/cmm/short-doubles/_crtbegin.o
 .data          0x0000000000000000        0x0 /opt/parallax/lib/gcc/propeller-elf/4.6.1/cmm/short-doubles/_crtbegin.o
 .bss           0x0000000000000000        0x0 /opt/parallax/lib/gcc/propeller-elf/4.6.1/cmm/short-doubles/_crtbegin.o
 .data          0x0000000000000000        0x0 cmm/librobo.o
 .bss           0x0000000000000000        0x0 cmm/librobo.o
 .bss           0x0000000000000000        0x0 cmm/calcPos.o
 .data          0x0000000000000000        0x0 /tmp/cclhuVHk.o
 .bss           0x0000000000000000        0x0 /tmp/cclhuVHk.o
 .text          0x0000000000000000        0x0 /home/alexis/dev/robotics/libs/Robotics/ActivityBot/libabdrive/cmm/libabdrive.a(abdrive.o)
 .data          0x0000000000000000        0x0 /home/alexis/dev/robotics/libs/Robotics/ActivityBot/libabdrive/cmm/libabdrive.a(abdrive.o)
 .bss           0x0000000000000000        0x0 /home/alexis/dev/robotics/libs/Robotics/ActivityBot/libabdrive/cmm/libabdrive.a(abdrive.o)
 .text.drive_close
                0x0000000000000000       0x14 /home/alexis/dev/robotics/libs/Robotics/ActivityBot/libabdrive/cmm/libabdrive.a(abdrive.o)
 .text.drive_setMaxSpeed
                0x0000000000000000        0x8 /home/alexis/dev/robotics/libs/Robotics/ActivityBot/libabdrive/cmm/libabdrive.a(abdrive.o)
 .text.drive_setRampStep
                0x0000000000000000        0x8 /home/alexis/dev/robotics/libs/Robotics/ActivityBot/libabdrive/cmm/libabdrive.a(abdrive.o)
 .text.drive_feedback
                0x0000000000000000        0x8 /home/alexis/dev/robotics/libs/Robotics/ActivityBot/libabdrive/cmm/libabdrive.a(abdrive.o)
 .text.drive_trim
                0x0000000000000000        0x8 /home/alexis/dev/robotics/libs/Robotics/ActivityBot/libabdrive/cmm/libabdrive.a(abdrive.o)
 .text.drive_open
                0x0000000000000000       0x1c /home/alexis/dev/robotics/libs/Robotics/ActivityBot/libabdrive/cmm/libabdrive.a(abdrive.o)
 .bss.xbee_setup
                0x0000000000000000        0x4 /home/alexis/dev/robotics/libs/Robotics/ActivityBot/libabdrive/cmm/libabdrive.a(abdrive.o)
 .bss._sprNext  0x0000000000000000        0x4 /home/alexis/dev/robotics/libs/Robotics/ActivityBot/libabdrive/cmm/libabdrive.a(abdrive.o)
 .bss.ridx      0x0000000000000000        0x4 /home/alexis/dev/robotics/libs/Robotics/ActivityBot/libabdrive/cmm/libabdrive.a(abdrive.o)
 .bss.tcR       0x0000000000000000        0x4 /home/alexis/dev/robotics/libs/Robotics/ActivityBot/libabdrive/cmm/libabdrive.a(abdrive.o)
 .bss.tcL       0x0000000000000000        0x4 /home/alexis/dev/robotics/libs/Robotics/ActivityBot/libabdrive/cmm/libabdrive.a(abdrive.o)
 .bss.kp        0x0000000000000000       0x18 /home/alexis/dev/robotics/libs/Robotics/ActivityBot/libabdrive/cmm/libabdrive.a(abdrive.o)
 .bss.rightPrev
                0x0000000000000000        0x4 /home/alexis/dev/robotics/libs/Robotics/ActivityBot/libabdrive/cmm/libabdrive.a(abdrive.o)
 .bss.leftPrev  0x0000000000000000        0x4 /home/alexis/dev/robotics/libs/Robotics/ActivityBot/libabdrive/cmm/libabdrive.a(abdrive.o)
 .bss.trimctr   0x0000000000000000        0x4 /home/alexis/dev/robotics/libs/Robotics/ActivityBot/libabdrive/cmm/libabdrive.a(abdrive.o)
 .bss.abd_record
                0x0000000000000000        0x4 /home/alexis/dev/robotics/libs/Robotics/ActivityBot/libabdrive/cmm/libabdrive.a(abdrive.o)
 .data.abd_rampStep
                0x0000000000000000        0x4 /home/alexis/dev/robotics/libs/Robotics/ActivityBot/libabdrive/cmm/libabdrive.a(abdrive.o)
 .text          0x0000000000000000        0x0 /home/alexis/dev/robotics/libs/Robotics/ActivityBot/libabdrive/cmm/libabdrive.a(getticks.o)
 .data          0x0000000000000000        0x0 /home/alexis/dev/robotics/libs/Robotics/ActivityBot/libabdrive/cmm/libabdrive.a(getticks.o)
 .bss           0x0000000000000000        0x0 /home/alexis/dev/robotics/libs/Robotics/ActivityBot/libabdrive/cmm/libabdrive.a(getticks.o)
 .text.drive_getTicksCalc
                0x0000000000000000       0x10 /home/alexis/dev/robotics/libs/Robotics/ActivityBot/libabdrive/cmm/libabdrive.a(getticks.o)
 .data          0x0000000000000000        0x0 /home/alexis/dev/robotics/libs/Sensor/libping/cmm/libping.a(ping.o)
 .bss           0x0000000000000000        0x0 /home/alexis/dev/robotics/libs/Sensor/libping/cmm/libping.a(ping.o)
 .data          0x0000000000000000        0x0 /home/alexis/dev/robotics/libs/Utility/libsimpletools/cmm//libsimpletools.a(eeprom_getByte.o)
 .bss           0x0000000000000000        0x0 /home/alexis/dev/robotics/libs/Utility/libsimpletools/cmm//libsimpletools.a(eeprom_getByte.o)
 .data          0x0000000000000000        0x0 /home/alexis/dev/robotics/libs/Utility/libsimpletools/cmm//libsimpletools.a(eeprom_getInt.o)
 .bss           0x0000000000000000        0x0 /home/alexis/dev/robotics/libs/Utility/libsimpletools/cmm//libsimpletools.a(eeprom_getInt.o)
 .data          0x0000000000000000        0x0 /home/alexis/dev/robotics/libs/Utility/libsimpletools/cmm//libsimpletools.a(eeprom_getStr.o)
 .bss           0x0000000000000000        0x0 /home/alexis/dev/robotics/libs/Utility/libsimpletools/cmm//libsimpletools.a(eeprom_getStr.o)
 .data          0x0000000000000000        0x0 /home/alexis/dev/robotics/libs/Utility/libsimpletools/cmm//libsimpletools.a(freqout.o)
 .bss           0x0000000000000000        0x0 /home/alexis/dev/robotics/libs/Utility/libsimpletools/cmm//libsimpletools.a(freqout.o)
 .text          0x0000000000000000        0x0 /home/alexis/dev/robotics/libs/Utility/libsimpletools/cmm//libsimpletools.a(i2c_in.o)
 .data          0x0000000000000000        0x0 /home/alexis/dev/robotics/libs/Utility/libsimpletools/cmm//libsimpletools.a(i2c_in.o)
 .bss           0x0000000000000000        0x0 /home/alexis/dev/robotics/libs/Utility/libsimpletools/cmm//libsimpletools.a(i2c_in.o)
 .data          0x0000000000000000        0x0 /home/alexis/dev/robotics/libs/Utility/libsimpletools/cmm//libsimpletools.a(input.o)
 .bss           0x0000000000000000        0x0 /home/alexis/dev/robotics/libs/Utility/libsimpletools/cmm//libsimpletools.a(input.o)
 .data          0x0000000000000000        0x0 /home/alexis/dev/robotics/libs/Utility/libsimpletools/cmm//libsimpletools.a(low.o)
 .bss           0x0000000000000000        0x0 /home/alexis/dev/robotics/libs/Utility/libsimpletools/cmm//libsimpletools.a(low.o)
 .data          0x0000000000000000        0x0 /home/alexis/dev/robotics/libs/Utility/libsimpletools/cmm//libsimpletools.a(pause.o)
 .bss           0x0000000000000000        0x0 /home/alexis/dev/robotics/libs/Utility/libsimpletools/cmm//libsimpletools.a(pause.o)
 .data          0x0000000000000000        0x0 /home/alexis/dev/robotics/libs/Utility/libsimpletools/cmm//libsimpletools.a(pulseIn.o)
 .bss           0x0000000000000000        0x0 /home/alexis/dev/robotics/libs/Utility/libsimpletools/cmm//libsimpletools.a(pulseIn.o)
 .data          0x0000000000000000        0x0 /home/alexis/dev/robotics/libs/Utility/libsimpletools/cmm//libsimpletools.a(pulseOut.o)
 .bss           0x0000000000000000        0x0 /home/alexis/dev/robotics/libs/Utility/libsimpletools/cmm//libsimpletools.a(pulseOut.o)
 .data          0x0000000000000000        0x0 /home/alexis/dev/robotics/libs/Utility/libsimpletools/cmm//libsimpletools.a(sddriverconfig.o)
 .data          0x0000000000000000        0x0 /home/alexis/dev/robotics/libs/Utility/libsimpletools/cmm//libsimpletools.a(setOutput.o)
 .bss           0x0000000000000000        0x0 /home/alexis/dev/robotics/libs/Utility/libsimpletools/cmm//libsimpletools.a(setOutput.o)
 .data          0x0000000000000000        0x0 /home/alexis/dev/robotics/libs/Utility/libsimpletools/cmm//libsimpletools.a(squareWave.o)
 .data          0x0000000000000000        0x0 /home/alexis/dev/robotics/libs/Utility/libsimpletools/cmm//libsimpletools.a(timeTicks.o)
 .bss           0x0000000000000000        0x0 /home/alexis/dev/robotics/libs/Utility/libsimpletools/cmm//libsimpletools.a(timeTicks.o)
 .bss           0x0000000000000000        0x0 /home/alexis/dev/robotics/libs/Utility/libsimpletools/cmm//libsimpletools.a(addfiledriver.o)
 .data          0x0000000000000000        0x0 /home/alexis/dev/robotics/libs/Utility/libsimpletools/cmm//libsimpletools.a(eeprom_init.o)
 .bss           0x0000000000000000        0x0 /home/alexis/dev/robotics/libs/Utility/libsimpletools/cmm//libsimpletools.a(eeprom_init.o)
 .data          0x0000000000000000        0x0 /home/alexis/dev/robotics/libs/Utility/libsimpletools/cmm//libsimpletools.a(endianSwap.o)
 .bss           0x0000000000000000        0x0 /home/alexis/dev/robotics/libs/Utility/libsimpletools/cmm//libsimpletools.a(endianSwap.o)
 .data          0x0000000000000000        0x0 /home/alexis/dev/robotics/libs/Utility/libsimpletools/cmm//libsimpletools.a(getOutput.o)
 .bss           0x0000000000000000        0x0 /home/alexis/dev/robotics/libs/Utility/libsimpletools/cmm//libsimpletools.a(getOutput.o)
 .data          0x0000000000000000        0x0 /home/alexis/dev/robotics/libs/Utility/libsimpletools/cmm//libsimpletools.a(getState.o)
 .bss           0x0000000000000000        0x0 /home/alexis/dev/robotics/libs/Utility/libsimpletools/cmm//libsimpletools.a(getState.o)
 .data          0x0000000000000000        0x0 /home/alexis/dev/robotics/libs/Utility/libsimpletools/cmm//libsimpletools.a(i2c_init.o)
 .text          0x0000000000000000        0x0 /home/alexis/dev/robotics/libs/Protocol/libsimplei2c/cmm//libsimplei2c.a(simplei2c.o)
 .data          0x0000000000000000        0x0 /home/alexis/dev/robotics/libs/Protocol/libsimplei2c/cmm//libsimplei2c.a(simplei2c.o)
 .bss           0x0000000000000000        0x0 /home/alexis/dev/robotics/libs/Protocol/libsimplei2c/cmm//libsimplei2c.a(simplei2c.o)
 .data          0x0000000000000000        0x0 /opt/parallax/lib/gcc/propeller-elf/4.6.1/../../../../propeller-elf/lib/cmm/short-doubles/libm.a(s_cexpf.o)
 .bss           0x0000000000000000        0x0 /opt/parallax/lib/gcc/propeller-elf/4.6.1/../../../../propeller-elf/lib/cmm/short-doubles/libm.a(s_cexpf.o)
 .bss           0x0000000000000000        0x0 /opt/parallax/lib/gcc/propeller-elf/4.6.1/../../../../propeller-elf/lib/cmm/short-doubles/libm.a(k_sincosf.o)
 .bss           0x0000000000000000        0x0 /opt/parallax/lib/gcc/propeller-elf/4.6.1/../../../../propeller-elf/lib/cmm/short-doubles/libm.a(e_expf.o)
 .bss           0x0000000000000000        0x0 /opt/parallax/lib/gcc/propeller-elf/4.6.1/../../../../propeller-elf/lib/cmm/short-doubles/libm.a(e_rem_pio2f.o)
 .bss           0x0000000000000000        0x0 /opt/parallax/lib/gcc/propeller-elf/4.6.1/../../../../propeller-elf/lib/cmm/short-doubles/libm.a(k_rem_pio2f.o)
 .data          0x0000000000000000        0x0 /opt/parallax/lib/gcc/propeller-elf/4.6.1/../../../../propeller-elf/lib/cmm/short-doubles/libm.a(s_floorf.o)
 .bss           0x0000000000000000        0x0 /opt/parallax/lib/gcc/propeller-elf/4.6.1/../../../../propeller-elf/lib/cmm/short-doubles/libm.a(s_floorf.o)
 .bss           0x0000000000000000        0x0 /opt/parallax/lib/gcc/propeller-elf/4.6.1/../../../../propeller-elf/lib/cmm/short-doubles/libm.a(s_scalbnf.o)
 .data          0x0000000000000000        0x0 /opt/parallax/lib/gcc/propeller-elf/4.6.1/cmm/short-doubles/libgcc.a(addsf3.o)
 .bss           0x0000000000000000        0x0 /opt/parallax/lib/gcc/propeller-elf/4.6.1/cmm/short-doubles/libgcc.a(addsf3.o)
 .data          0x0000000000000000        0x0 /opt/parallax/lib/gcc/propeller-elf/4.6.1/cmm/short-doubles/libgcc.a(divsf3.o)
 .bss           0x0000000000000000        0x0 /opt/parallax/lib/gcc/propeller-elf/4.6.1/cmm/short-doubles/libgcc.a(divsf3.o)
 .data          0x0000000000000000        0x0 /opt/parallax/lib/gcc/propeller-elf/4.6.1/cmm/short-doubles/libgcc.a(eqsf2.o)
 .bss           0x0000000000000000        0x0 /opt/parallax/lib/gcc/propeller-elf/4.6.1/cmm/short-doubles/libgcc.a(eqsf2.o)
 .data          0x0000000000000000        0x0 /opt/parallax/lib/gcc/propeller-elf/4.6.1/cmm/short-doubles/libgcc.a(gesf2.o)
 .bss           0x0000000000000000        0x0 /opt/parallax/lib/gcc/propeller-elf/4.6.1/cmm/short-doubles/libgcc.a(gesf2.o)
 .data          0x0000000000000000        0x0 /opt/parallax/lib/gcc/propeller-elf/4.6.1/cmm/short-doubles/libgcc.a(lesf2.o)
 .bss           0x0000000000000000        0x0 /opt/parallax/lib/gcc/propeller-elf/4.6.1/cmm/short-doubles/libgcc.a(lesf2.o)
 .data          0x0000000000000000        0x0 /opt/parallax/lib/gcc/propeller-elf/4.6.1/cmm/short-doubles/libgcc.a(mulsf3.o)
 .bss           0x0000000000000000        0x0 /opt/parallax/lib/gcc/propeller-elf/4.6.1/cmm/short-doubles/libgcc.a(mulsf3.o)
 .data          0x0000000000000000        0x0 /opt/parallax/lib/gcc/propeller-elf/4.6.1/cmm/short-doubles/libgcc.a(subsf3.o)
 .bss           0x0000000000000000        0x0 /opt/parallax/lib/gcc/propeller-elf/4.6.1/cmm/short-doubles/libgcc.a(subsf3.o)
 .data          0x0000000000000000        0x0 /opt/parallax/lib/gcc/propeller-elf/4.6.1/cmm/short-doubles/libgcc.a(fixsfsi.o)
 .bss           0x0000000000000000        0x0 /opt/parallax/lib/gcc/propeller-elf/4.6.1/cmm/short-doubles/libgcc.a(fixsfsi.o)
 .data          0x0000000000000000        0x0 /opt/parallax/lib/gcc/propeller-elf/4.6.1/cmm/short-doubles/libgcc.a(floatsisf.o)
 .bss           0x0000000000000000        0x0 /opt/parallax/lib/gcc/propeller-elf/4.6.1/cmm/short-doubles/libgcc.a(floatsisf.o)
 .data          0x0000000000000000        0x0 /opt/parallax/lib/gcc/propeller-elf/4.6.1/../../../../propeller-elf/lib/cmm/short-doubles/libc.a(fopen.o)
 .bss           0x0000000000000000        0x0 /opt/parallax/lib/gcc/propeller-elf/4.6.1/../../../../propeller-elf/lib/cmm/short-doubles/libc.a(fopen.o)
 .data          0x0000000000000000        0x4 /opt/parallax/lib/gcc/propeller-elf/4.6.1/../../../../propeller-elf/lib/cmm/short-doubles/libc.a(fopen_intern.o)
 .bss           0x0000000000000000        0x0 /opt/parallax/lib/gcc/propeller-elf/4.6.1/../../../../propeller-elf/lib/cmm/short-doubles/libc.a(fopen_intern.o)
 .data          0x0000000000000000        0x0 /opt/parallax/lib/gcc/propeller-elf/4.6.1/../../../../propeller-elf/lib/cmm/short-doubles/libc.a(fwrite.o)
 .bss           0x0000000000000000        0x0 /opt/parallax/lib/gcc/propeller-elf/4.6.1/../../../../propeller-elf/lib/cmm/short-doubles/libc.a(fwrite.o)
 .data          0x0000000000000000        0x0 /opt/parallax/lib/gcc/propeller-elf/4.6.1/../../../../propeller-elf/lib/cmm/short-doubles/libc.a(abort.o)
 .bss           0x0000000000000000        0x0 /opt/parallax/lib/gcc/propeller-elf/4.6.1/../../../../propeller-elf/lib/cmm/short-doubles/libc.a(abort.o)
 .text          0x0000000000000000        0x4 /opt/parallax/lib/gcc/propeller-elf/4.6.1/../../../../propeller-elf/lib/cmm/short-doubles/libc.a(thread.o)
 .data          0x0000000000000000        0x4 /opt/parallax/lib/gcc/propeller-elf/4.6.1/../../../../propeller-elf/lib/cmm/short-doubles/libc.a(thread.o)
 .data          0x0000000000000000        0x0 /opt/parallax/lib/gcc/propeller-elf/4.6.1/../../../../propeller-elf/lib/cmm/short-doubles/libc.a(cogstart.o)
 .bss           0x0000000000000000        0x0 /opt/parallax/lib/gcc/propeller-elf/4.6.1/../../../../propeller-elf/lib/cmm/short-doubles/libc.a(cogstart.o)
 .data          0x0000000000000000        0x0 /opt/parallax/lib/gcc/propeller-elf/4.6.1/../../../../propeller-elf/lib/cmm/short-doubles/libc.a(memcpy.o)
 .bss           0x0000000000000000        0x0 /opt/parallax/lib/gcc/propeller-elf/4.6.1/../../../../propeller-elf/lib/cmm/short-doubles/libc.a(memcpy.o)
 .data          0x0000000000000000        0x0 /opt/parallax/lib/gcc/propeller-elf/4.6.1/../../../../propeller-elf/lib/cmm/short-doubles/libc.a(memset.o)
 .bss           0x0000000000000000        0x0 /opt/parallax/lib/gcc/propeller-elf/4.6.1/../../../../propeller-elf/lib/cmm/short-doubles/libc.a(memset.o)
 .data          0x0000000000000000        0x0 /opt/parallax/lib/gcc/propeller-elf/4.6.1/../../../../propeller-elf/lib/cmm/short-doubles/libc.a(strlen.o)
 .bss           0x0000000000000000        0x0 /opt/parallax/lib/gcc/propeller-elf/4.6.1/../../../../propeller-elf/lib/cmm/short-doubles/libc.a(strlen.o)
 .data          0x0000000000000000        0x0 /opt/parallax/lib/gcc/propeller-elf/4.6.1/../../../../propeller-elf/lib/cmm/short-doubles/libc.a(strncmp.o)
 .bss           0x0000000000000000        0x0 /opt/parallax/lib/gcc/propeller-elf/4.6.1/../../../../propeller-elf/lib/cmm/short-doubles/libc.a(strncmp.o)
 .bss           0x0000000000000000        0x0 /opt/parallax/lib/gcc/propeller-elf/4.6.1/../../../../propeller-elf/lib/cmm/short-doubles/libc.a(SimpleSerial.o)
 .text          0x0000000000000000        0x0 /opt/parallax/lib/gcc/propeller-elf/4.6.1/../../../../propeller-elf/lib/cmm/short-doubles/libc.a(serialparam.o)
 .bss           0x0000000000000000        0x0 /opt/parallax/lib/gcc/propeller-elf/4.6.1/../../../../propeller-elf/lib/cmm/short-doubles/libc.a(serialparam.o)
 .text          0x0000000000000000        0x0 /opt/parallax/lib/gcc/propeller-elf/4.6.1/../../../../propeller-elf/lib/cmm/short-doubles/libc.a(terminal.o)
 .data          0x0000000000000000        0x0 /opt/parallax/lib/gcc/propeller-elf/4.6.1/../../../../propeller-elf/lib/cmm/short-doubles/libc.a(terminal.o)
 .bss           0x0000000000000000        0x0 /opt/parallax/lib/gcc/propeller-elf/4.6.1/../../../../propeller-elf/lib/cmm/short-doubles/libc.a(terminal.o)
 .data          0x0000000000000000        0x0 /opt/parallax/lib/gcc/propeller-elf/4.6.1/../../../../propeller-elf/lib/cmm/short-doubles/libc.a(mount.o)
 .bss           0x0000000000000000        0x0 /opt/parallax/lib/gcc/propeller-elf/4.6.1/../../../../propeller-elf/lib/cmm/short-doubles/libc.a(mount.o)
 .bss           0x0000000000000000        0x0 /opt/parallax/lib/gcc/propeller-elf/4.6.1/../../../../propeller-elf/lib/cmm/short-doubles/libc.a(dosfs.o)
 .data          0x0000000000000000        0x0 /opt/parallax/lib/gcc/propeller-elf/4.6.1/../../../../propeller-elf/lib/cmm/short-doubles/libc.a(file_io.o)
 .data          0x0000000000000000        0x0 /opt/parallax/lib/gcc/propeller-elf/4.6.1/../../../../propeller-elf/lib/cmm/short-doubles/libc.a(load_sd_driver.o)
 .bss           0x0000000000000000        0x0 /opt/parallax/lib/gcc/propeller-elf/4.6.1/../../../../propeller-elf/lib/cmm/short-doubles/libc.a(load_sd_driver.o)
 .text          0x0000000000000000        0x0 /opt/parallax/lib/gcc/propeller-elf/4.6.1/../../../../propeller-elf/lib/cmm/short-doubles/libc.a(sd_driver.o)
 .bss           0x0000000000000000        0x0 /opt/parallax/lib/gcc/propeller-elf/4.6.1/../../../../propeller-elf/lib/cmm/short-doubles/libc.a(sd_driver.o)
 .data          0x0000000000000000        0x0 /opt/parallax/lib/gcc/propeller-elf/4.6.1/../../../../propeller-elf/lib/cmm/short-doubles/libc.a(fflush.o)
 .bss           0x0000000000000000        0x0 /opt/parallax/lib/gcc/propeller-elf/4.6.1/../../../../propeller-elf/lib/cmm/short-doubles/libc.a(fflush.o)
 .data          0x0000000000000000        0x0 /opt/parallax/lib/gcc/propeller-elf/4.6.1/../../../../propeller-elf/lib/cmm/short-doubles/libc.a(atoi.o)
 .bss           0x0000000000000000        0x0 /opt/parallax/lib/gcc/propeller-elf/4.6.1/../../../../propeller-elf/lib/cmm/short-doubles/libc.a(atoi.o)
 .data          0x0000000000000000        0x0 /opt/parallax/lib/gcc/propeller-elf/4.6.1/../../../../propeller-elf/lib/cmm/short-doubles/libc.a(div.o)
 .bss           0x0000000000000000        0x0 /opt/parallax/lib/gcc/propeller-elf/4.6.1/../../../../propeller-elf/lib/cmm/short-doubles/libc.a(div.o)
 .text          0x0000000000000000        0x0 /opt/parallax/lib/gcc/propeller-elf/4.6.1/../../../../propeller-elf/lib/cmm/short-doubles/libc.a(ctype.o)
 .bss           0x0000000000000000        0x0 /opt/parallax/lib/gcc/propeller-elf/4.6.1/../../../../propeller-elf/lib/cmm/short-doubles/libc.a(ctype.o)
 .bss           0x0000000000000000        0x0 /opt/parallax/lib/gcc/propeller-elf/4.6.1/../../../../propeller-elf/lib/cmm/short-doubles/libc.a(sbrk.o)
 .data          0x0000000000000000        0x0 /opt/parallax/lib/gcc/propeller-elf/4.6.1/../../../../propeller-elf/lib/cmm/short-doubles/libc.a(memcmp.o)
 .bss           0x0000000000000000        0x0 /opt/parallax/lib/gcc/propeller-elf/4.6.1/../../../../propeller-elf/lib/cmm/short-doubles/libc.a(memcmp.o)
 .data          0x0000000000000000        0x0 /opt/parallax/lib/gcc/propeller-elf/4.6.1/../../../../propeller-elf/lib/cmm/short-doubles/libc.a(strcat.o)
 .bss           0x0000000000000000        0x0 /opt/parallax/lib/gcc/propeller-elf/4.6.1/../../../../propeller-elf/lib/cmm/short-doubles/libc.a(strcat.o)
 .data          0x0000000000000000        0x0 /opt/parallax/lib/gcc/propeller-elf/4.6.1/../../../../propeller-elf/lib/cmm/short-doubles/libc.a(strcmp.o)
 .bss           0x0000000000000000        0x0 /opt/parallax/lib/gcc/propeller-elf/4.6.1/../../../../propeller-elf/lib/cmm/short-doubles/libc.a(strcmp.o)
 .data          0x0000000000000000        0x0 /opt/parallax/lib/gcc/propeller-elf/4.6.1/../../../../propeller-elf/lib/cmm/short-doubles/libc.a(strcpy.o)
 .bss           0x0000000000000000        0x0 /opt/parallax/lib/gcc/propeller-elf/4.6.1/../../../../propeller-elf/lib/cmm/short-doubles/libc.a(strcpy.o)
 .data          0x0000000000000000        0x0 /opt/parallax/lib/gcc/propeller-elf/4.6.1/../../../../propeller-elf/lib/cmm/short-doubles/libc.a(strncpy.o)
 .bss           0x0000000000000000        0x0 /opt/parallax/lib/gcc/propeller-elf/4.6.1/../../../../propeller-elf/lib/cmm/short-doubles/libc.a(strncpy.o)
 .text          0x0000000000000000        0x0 /opt/parallax/lib/gcc/propeller-elf/4.6.1/cmm/short-doubles/_crtend.o
 .data          0x0000000000000000        0x0 /opt/parallax/lib/gcc/propeller-elf/4.6.1/cmm/short-doubles/_crtend.o
 .bss           0x0000000000000000        0x0 /opt/parallax/lib/gcc/propeller-elf/4.6.1/cmm/short-doubles/_crtend.o

Memory Configuration

Name             Origin             Length             Attributes
hub              0x0000000000000000 0x0000000000008000
cog              0x0000000000000000 0x00000000000007c0
coguser          0x0000000000000000 0x00000000000007c0
ram              0x0000000020000000 0x0000000010000000
rom              0x0000000030000000 0x0000000010000000
drivers          0x00000000c0000000 0x0000000000100000
dummy            0x00000000e0000000 0x0000000000100000
*default*        0x0000000000000000 0xffffffffffffffff

Linker script and memory map

LOAD /opt/parallax/lib/gcc/propeller-elf/4.6.1/cmm/short-doubles/spinboot.o
LOAD /opt/parallax/lib/gcc/propeller-elf/4.6.1/cmm/short-doubles/_crt0.o
LOAD /opt/parallax/lib/gcc/propeller-elf/4.6.1/cmm/short-doubles/_crtbegin.o
LOAD cmm/librobo.o
LOAD cmm/calcPos.o
LOAD /tmp/cclhuVHk.o
LOAD /home/alexis/dev/robotics/libs/Protocol/libsimplei2c/cmm//libsimplei2c.a
LOAD /home/alexis/dev/robotics/libs/Robotics/ActivityBot/libabdrive/cmm/libabdrive.a
LOAD /home/alexis/dev/robotics/libs/TextDevices/libfdserial/cmm/libfdserial.a
LOAD /home/alexis/dev/robotics/libs/Sensor/libping/cmm/libping.a
LOAD /home/alexis/dev/robotics/libs/Motor/libservo/cmm/libservo.a
LOAD /home/alexis/dev/robotics/libs/Utility/libsimpletools/cmm//libsimpletools.a
LOAD /home/alexis/dev/robotics/libs/TextDevices/libsimpletext/cmm//libsimpletext.a
LOAD /home/alexis/dev/robotics/libs/Protocol/libsimplei2c/cmm//libsimplei2c.a
LOAD /home/alexis/dev/robotics/libs/Utility/libsimpletools/cmm//libsimpletools.a
LOAD /home/alexis/dev/robotics/libs/TextDevices/libsimpletext/cmm//libsimpletext.a
LOAD /home/alexis/dev/robotics/libs/Utility/libsimpletools/cmm//libsimpletools.a
LOAD /opt/parallax/lib/gcc/propeller-elf/4.6.1/../../../../propeller-elf/lib/cmm/short-doubles/libm.a
LOAD /opt/parallax/lib/gcc/propeller-elf/4.6.1/cmm/short-doubles/libgcc.a
START GROUP
LOAD /opt/parallax/lib/gcc/propeller-elf/4.6.1/../../../../propeller-elf/lib/cmm/short-doubles/libc.a
LOAD /opt/parallax/lib/gcc/propeller-elf/4.6.1/cmm/short-doubles/libgcc.a
END GROUP
LOAD /opt/parallax/lib/gcc/propeller-elf/4.6.1/cmm/short-doubles/libgcc.a
LOAD /opt/parallax/lib/gcc/propeller-elf/4.6.1/cmm/short-doubles/_crtend.o

.boot           0x0000000000000000       0x20
 *(.boot)
 .boot          0x0000000000000000       0x20 /opt/parallax/lib/gcc/propeller-elf/4.6.1/cmm/short-doubles/spinboot.o
                0x0000000000000000                __clkfreq
                0x0000000000000004                __clkmode
                0x0000000000000008                __sys_mbox

.lmmkernel      0x0000000000000000      0x764 load address 0x0000000000000020
 *(.lmmkernel)
 .lmmkernel     0x0000000000000000      0x760 /opt/parallax/lib/gcc/propeller-elf/4.6.1/cmm/short-doubles/_crt0.o
                0x0000000000000000                __LMM_entry
                0x0000000000000000                r0
                0x0000000000000004                r1
                0x0000000000000008                r2
                0x000000000000000c                r3
                0x0000000000000010                r4
                0x0000000000000014                r5
                0x0000000000000018                r6
                0x000000000000001c                r7
                0x0000000000000020                r8
                0x0000000000000024                r9
                0x0000000000000028                r10
                0x000000000000002c                r11
                0x0000000000000030                r12
                0x0000000000000034                r13
                0x0000000000000038                r14
                0x000000000000003c                lr
                0x0000000000000040                sp
                0x0000000000000044                pc
                0x0000000000000048                __MASK_FFFFFFFF
                0x000000000000004c                __TMP0
                0x0000000000000440                __LMM_CALL
                0x0000000000000448                __LMM_CALL_INDIRECT
                0x0000000000000454                __LMM_JMP
                0x0000000000000460                __LMM_PUSHM
                0x0000000000000480                __LMM_PUSHM_ret
                0x0000000000000488                __LMM_POPRET
                0x0000000000000490                __LMM_POPRET_ret
                0x0000000000000494                __LMM_POPM
                0x00000000000004b4                __LMM_POPM_ret
                0x00000000000004b8                __MASK_0000FFFF
                0x00000000000004cc                __CLZSI
                0x00000000000004d0                __CTZSI
                0x0000000000000508                __CLZSI_ret
                0x0000000000000514                __UDIVSI
                0x0000000000000558                __UDIVSI_ret
                0x0000000000000560                __DIVSI
                0x0000000000000588                __DIVSI_ret
                0x0000000000000598                __MULSI
                0x00000000000005b8                __MULSI_ret
                0x00000000000005bc                __C_LOCK_PTR
                0x00000000000005c0                __CMPSWAPSI
                0x00000000000005e0                __CMPSWAPSI_ret
                0x00000000000005ec                __LMM_RET
                0x0000000000000660                __LMM_FCACHE_START
 *(.kernel)
 .kernel        0x0000000000000760        0x4 /opt/parallax/lib/gcc/propeller-elf/4.6.1/../../../../propeller-elf/lib/cmm/short-doubles/libc.a(thread.o)
                0x0000000000000760                __TLS

.init           0x0000000000000784       0x74
 *(.init*)
 .init          0x0000000000000784       0x60 /opt/parallax/lib/gcc/propeller-elf/4.6.1/cmm/short-doubles/_crtbegin.o
                0x0000000000000784                entry
                0x0000000000000784                start
                0x00000000000007ab                ___init
 .init          0x00000000000007e4       0x14 /opt/parallax/lib/gcc/propeller-elf/4.6.1/cmm/short-doubles/_crtend.o

.text           0x00000000000007f8     0x5480
 *(.text*)
 .text          0x00000000000007f8       0xd8 cmm/librobo.o
                0x00000000000007f8                _stopDead
                0x000000000000080a                _ledDist
                0x0000000000000830                _integralTerm
                0x000000000000083f                _diffTerm
                0x000000000000084e                _followWall
                0x00000000000008c1                _followLeftWall
 .text          0x00000000000008d0      0x18c cmm/calcPos.o
                0x00000000000008d0                _init
                0x00000000000008f0                _calcPosition
                0x0000000000000a02                _printPosition
 .text          0x0000000000000a5c        0x8 /tmp/cclhuVHk.o
                0x0000000000000a5c                _main
 .text.drive_com
                0x0000000000000a64       0x50 /home/alexis/dev/robotics/libs/Robotics/ActivityBot/libabdrive/cmm/libabdrive.a(abdrive.o)
                0x0000000000000a64                _drive_com
 .text.interpolation_table_setup
                0x0000000000000ab4      0x210 /home/alexis/dev/robotics/libs/Robotics/ActivityBot/libabdrive/cmm/libabdrive.a(abdrive.o)
                0x0000000000000ab4                _interpolation_table_setup
 .text.interpolate
                0x0000000000000cc4      0x110 /home/alexis/dev/robotics/libs/Robotics/ActivityBot/libabdrive/cmm/libabdrive.a(abdrive.o)
                0x0000000000000cc4                _interpolate
 .text.encoders
                0x0000000000000dd4      0x714 /home/alexis/dev/robotics/libs/Robotics/ActivityBot/libabdrive/cmm/libabdrive.a(abdrive.o)
                0x0000000000000dd4                _encoders
 .text.set_drive_speed
                0x00000000000014e8       0x80 /home/alexis/dev/robotics/libs/Robotics/ActivityBot/libabdrive/cmm/libabdrive.a(abdrive.o)
                0x00000000000014e8                _set_drive_speed
 .text.drive_speed
                0x0000000000001568       0x9c /home/alexis/dev/robotics/libs/Robotics/ActivityBot/libabdrive/cmm/libabdrive.a(abdrive.o)
                0x0000000000001568                _drive_speed
 .text.drive_getTicks
                0x0000000000001604       0x10 /home/alexis/dev/robotics/libs/Robotics/ActivityBot/libabdrive/cmm/libabdrive.a(getticks.o)
                0x0000000000001604                _drive_getTicks
 .text          0x0000000000001614       0x2c /home/alexis/dev/robotics/libs/Sensor/libping/cmm/libping.a(ping.o)
                0x0000000000001614                _ping
                0x000000000000162b                _ping_cm
                0x0000000000001635                _ping_inches
 .text          0x0000000000001640       0x38 /home/alexis/dev/robotics/libs/Utility/libsimpletools/cmm//libsimpletools.a(eeprom_getByte.o)
                0x0000000000001640                _ee_getByte
 .text          0x0000000000001678       0x30 /home/alexis/dev/robotics/libs/Utility/libsimpletools/cmm//libsimpletools.a(eeprom_getInt.o)
                0x0000000000001678                _ee_getInt
 .text          0x00000000000016a8       0x30 /home/alexis/dev/robotics/libs/Utility/libsimpletools/cmm//libsimpletools.a(eeprom_getStr.o)
                0x00000000000016a8                _ee_getStr
 .text          0x00000000000016d8       0x68 /home/alexis/dev/robotics/libs/Utility/libsimpletools/cmm//libsimpletools.a(freqout.o)
                0x00000000000016d8                _freqout
 .text          0x0000000000001740       0x1c /home/alexis/dev/robotics/libs/Utility/libsimpletools/cmm//libsimpletools.a(input.o)
                0x0000000000001740                _input
 .text          0x000000000000175c       0x1c /home/alexis/dev/robotics/libs/Utility/libsimpletools/cmm//libsimpletools.a(low.o)
                0x000000000000175c                _low
 .text          0x0000000000001778       0x14 /home/alexis/dev/robotics/libs/Utility/libsimpletools/cmm//libsimpletools.a(pause.o)
                0x0000000000001778                _pause
 .text          0x000000000000178c       0xc4 /home/alexis/dev/robotics/libs/Utility/libsimpletools/cmm//libsimpletools.a(pulseIn.o)
                0x000000000000178c                _pulse_in
 .text          0x0000000000001850       0xa0 /home/alexis/dev/robotics/libs/Utility/libsimpletools/cmm//libsimpletools.a(pulseOut.o)
                0x0000000000001850                _pulse_out
 .text          0x00000000000018f0       0x38 /home/alexis/dev/robotics/libs/Utility/libsimpletools/cmm//libsimpletools.a(sddriverconfig.o)
                0x00000000000018f0                _sd_mount
 .text          0x0000000000001928       0x18 /home/alexis/dev/robotics/libs/Utility/libsimpletools/cmm//libsimpletools.a(setOutput.o)
                0x0000000000001928                _set_output
 .text          0x0000000000001940      0x1e4 /home/alexis/dev/robotics/libs/Utility/libsimpletools/cmm//libsimpletools.a(squareWave.o)
                0x0000000000001940                _square_wave_cog
                0x0000000000001a1a                _square_wave_stop
                0x0000000000001a43                _int_fraction
                0x0000000000001a6c                _square_wave_setup
                0x0000000000001ac4                _square_wave
 .text          0x0000000000001b24       0x40 /home/alexis/dev/robotics/libs/Utility/libsimpletools/cmm//libsimpletools.a(timeTicks.o)
                0x0000000000001b24                _timeTicksSetup
 .text          0x0000000000001b64       0x20 /home/alexis/dev/robotics/libs/Utility/libsimpletools/cmm//libsimpletools.a(addfiledriver.o)
                0x0000000000001b64                _add_driver
 .text          0x0000000000001b84       0x18 /home/alexis/dev/robotics/libs/Utility/libsimpletools/cmm//libsimpletools.a(eeprom_init.o)
                0x0000000000001b84                _ee_init
 .text          0x0000000000001b9c       0x18 /home/alexis/dev/robotics/libs/Utility/libsimpletools/cmm//libsimpletools.a(endianSwap.o)
                0x0000000000001b9c                _endianSwap
 .text          0x0000000000001bb4        0xc /home/alexis/dev/robotics/libs/Utility/libsimpletools/cmm//libsimpletools.a(getOutput.o)
                0x0000000000001bb4                _get_output
 .text          0x0000000000001bc0        0xc /home/alexis/dev/robotics/libs/Utility/libsimpletools/cmm//libsimpletools.a(getState.o)
                0x0000000000001bc0                _get_state
 .text          0x0000000000001bcc       0x2c /home/alexis/dev/robotics/libs/Utility/libsimpletools/cmm//libsimpletools.a(i2c_init.o)
                0x0000000000001bcc                _i2c_newbus
 .text          0x0000000000001bf8       0x58 /opt/parallax/lib/gcc/propeller-elf/4.6.1/../../../../propeller-elf/lib/cmm/short-doubles/libm.a(s_cexpf.o)
                0x0000000000001bf8                _cexp
                0x0000000000001bf8                _cexpf
 .text          0x0000000000001c50      0x280 /opt/parallax/lib/gcc/propeller-elf/4.6.1/../../../../propeller-elf/lib/cmm/short-doubles/libm.a(k_sincosf.o)
                0x0000000000001e33                ___sincos
                0x0000000000001e33                ___sincosf
 .text          0x0000000000001ed0      0x1dc /opt/parallax/lib/gcc/propeller-elf/4.6.1/../../../../propeller-elf/lib/cmm/short-doubles/libm.a(e_expf.o)
                0x0000000000001ed0                _expf
                0x0000000000001ed0                _exp
 .text          0x00000000000020ac      0x2c4 /opt/parallax/lib/gcc/propeller-elf/4.6.1/../../../../propeller-elf/lib/cmm/short-doubles/libm.a(e_rem_pio2f.o)
                0x00000000000020ac                ___ieee754_rem_pio2f
 .text          0x0000000000002370      0x8bc /opt/parallax/lib/gcc/propeller-elf/4.6.1/../../../../propeller-elf/lib/cmm/short-doubles/libm.a(k_rem_pio2f.o)
                0x0000000000002370                ___kernel_rem_pio2f
 .text          0x0000000000002c2c       0x84 /opt/parallax/lib/gcc/propeller-elf/4.6.1/../../../../propeller-elf/lib/cmm/short-doubles/libm.a(s_floorf.o)
                0x0000000000002c2c                _floorf
                0x0000000000002c2c                _floor
 .text          0x0000000000002cb0       0xd8 /opt/parallax/lib/gcc/propeller-elf/4.6.1/../../../../propeller-elf/lib/cmm/short-doubles/libm.a(s_scalbnf.o)
                0x0000000000002cb0                _scalbnf
                0x0000000000002cb0                _ldexpf
                0x0000000000002cb0                _ldexp
 .text          0x0000000000002d88      0x370 /opt/parallax/lib/gcc/propeller-elf/4.6.1/cmm/short-doubles/libgcc.a(addsf3.o)
                0x0000000000002d88                ___addsf3
 .text          0x00000000000030f8      0x200 /opt/parallax/lib/gcc/propeller-elf/4.6.1/cmm/short-doubles/libgcc.a(divsf3.o)
                0x00000000000030f8                ___divsf3
 .text          0x00000000000032f8       0x58 /opt/parallax/lib/gcc/propeller-elf/4.6.1/cmm/short-doubles/libgcc.a(eqsf2.o)
                0x00000000000032f8                ___nesf2
                0x00000000000032f8                ___eqsf2
 .text          0x0000000000003350       0x9c /opt/parallax/lib/gcc/propeller-elf/4.6.1/cmm/short-doubles/libgcc.a(gesf2.o)
                0x0000000000003350                ___gtsf2
                0x0000000000003350                ___gesf2
 .text          0x00000000000033ec       0x9c /opt/parallax/lib/gcc/propeller-elf/4.6.1/cmm/short-doubles/libgcc.a(lesf2.o)
                0x00000000000033ec                ___lesf2
                0x00000000000033ec                ___ltsf2
 .text          0x0000000000003488      0x240 /opt/parallax/lib/gcc/propeller-elf/4.6.1/cmm/short-doubles/libgcc.a(mulsf3.o)
                0x0000000000003488                ___mulsf3
 .text          0x00000000000036c8      0x390 /opt/parallax/lib/gcc/propeller-elf/4.6.1/cmm/short-doubles/libgcc.a(subsf3.o)
                0x00000000000036c8                ___subsf3
 .text          0x0000000000003a58       0x4c /opt/parallax/lib/gcc/propeller-elf/4.6.1/cmm/short-doubles/libgcc.a(fixsfsi.o)
                0x0000000000003a58                ___fixsfsi
 .text          0x0000000000003aa4       0xb0 /opt/parallax/lib/gcc/propeller-elf/4.6.1/cmm/short-doubles/libgcc.a(floatsisf.o)
                0x0000000000003aa4                ___floatsisf
 .text          0x0000000000003b54       0xa4 /opt/parallax/lib/gcc/propeller-elf/4.6.1/../../../../propeller-elf/lib/cmm/short-doubles/libc.a(fopen.o)
                0x0000000000003b54                ___fopen_findslot
                0x0000000000003ba1                _fopen
 .text          0x0000000000003bf8      0x17c /opt/parallax/lib/gcc/propeller-elf/4.6.1/../../../../propeller-elf/lib/cmm/short-doubles/libc.a(fopen_intern.o)
                0x0000000000003bf8                ___fopen_driver
                0x0000000000003ce5                _fclose
 .text          0x0000000000003d74      0x120 /opt/parallax/lib/gcc/propeller-elf/4.6.1/../../../../propeller-elf/lib/cmm/short-doubles/libc.a(fwrite.o)
                0x0000000000003d74                _fwrite
 .text          0x0000000000003e94       0x50 /opt/parallax/lib/gcc/propeller-elf/4.6.1/../../../../propeller-elf/lib/cmm/short-doubles/libc.a(init_io.o)
                0x0000000000003e94                __InitIO
 .text          0x0000000000003ee4        0x8 /opt/parallax/lib/gcc/propeller-elf/4.6.1/../../../../propeller-elf/lib/cmm/short-doubles/libc.a(abort.o)
                0x0000000000003ee4                _abort
 .text          0x0000000000003eec       0x48 /opt/parallax/lib/gcc/propeller-elf/4.6.1/../../../../propeller-elf/lib/cmm/short-doubles/libc.a(cogstart.o)
                0x0000000000003eec                _cogstart
 .text          0x0000000000003f34       0x80 /opt/parallax/lib/gcc/propeller-elf/4.6.1/../../../../propeller-elf/lib/cmm/short-doubles/libc.a(memcpy.o)
                0x0000000000003f34                _memcpy
 .text          0x0000000000003fb4       0x9c /opt/parallax/lib/gcc/propeller-elf/4.6.1/../../../../propeller-elf/lib/cmm/short-doubles/libc.a(memset.o)
                0x0000000000003fb4                _memset
 .text          0x0000000000004050       0x10 /opt/parallax/lib/gcc/propeller-elf/4.6.1/../../../../propeller-elf/lib/cmm/short-doubles/libc.a(strlen.o)
                0x0000000000004050                _strlen
 .text          0x0000000000004060       0x84 /opt/parallax/lib/gcc/propeller-elf/4.6.1/../../../../propeller-elf/lib/cmm/short-doubles/libc.a(strncmp.o)
                0x0000000000004060                _strncmp
 .text          0x00000000000040e4      0x1c4 /opt/parallax/lib/gcc/propeller-elf/4.6.1/../../../../propeller-elf/lib/cmm/short-doubles/libc.a(SimpleSerial.o)
 .text          0x00000000000042a8      0x3dc /opt/parallax/lib/gcc/propeller-elf/4.6.1/../../../../propeller-elf/lib/cmm/short-doubles/libc.a(FileDriver.o)
                0x00000000000042f5                _dfs_stdio_errno
                0x0000000000004387                _mount_complete
                0x0000000000004405                _dfs_mount_defaults
                0x0000000000004429                _dfs_resolve_path
 .text          0x0000000000004684       0xe0 /opt/parallax/lib/gcc/propeller-elf/4.6.1/../../../../propeller-elf/lib/cmm/short-doubles/libc.a(mount.o)
                0x0000000000004684                _dfs_mount
 .text          0x0000000000004764      0xff4 /opt/parallax/lib/gcc/propeller-elf/4.6.1/../../../../propeller-elf/lib/cmm/short-doubles/libc.a(dosfs.o)
                0x0000000000004764                _dfs_setDefaultFileDateTime
                0x00000000000047a4                _DFS_SetDirEntDateTime
                0x00000000000047eb                _DFS_SetStartCluster
                0x0000000000004812                _DFS_GetVolInfo
                0x0000000000004980                _DFS_GetFAT
                0x0000000000004a2c                _DFS_SetFAT
                0x0000000000004afb                _DFS_CanonicalToDir
                0x0000000000004b51                _DFS_GetFreeFAT
                0x0000000000004b89                _DFS_GetNext
                0x0000000000004cbd                _DFS_OpenDir
                0x0000000000004e40                _DFS_GetFreeDirEnt
                0x0000000000004f3b                _DFS_OpenFile
                0x00000000000051ba                _DFS_ReadFile
                0x0000000000005335                _DFS_Seek
                0x0000000000005424                _DFS_UnlinkFile
                0x00000000000054c3                _DFS_WriteFile
 .text          0x0000000000005758      0x128 /opt/parallax/lib/gcc/propeller-elf/4.6.1/../../../../propeller-elf/lib/cmm/short-doubles/libc.a(file_io.o)
                0x0000000000005758                _dfs_use_lock
                0x0000000000005774                _DFS_InitFileIO
                0x00000000000057b3                _DFS_ReadSector
                0x0000000000005822                _DFS_WriteSector
 .text          0x0000000000005880       0x44 /opt/parallax/lib/gcc/propeller-elf/4.6.1/../../../../propeller-elf/lib/cmm/short-doubles/libc.a(load_sd_driver.o)
                0x0000000000005880                _LoadSDDriver
 .text          0x00000000000058c4       0xe0 /opt/parallax/lib/gcc/propeller-elf/4.6.1/../../../../propeller-elf/lib/cmm/short-doubles/libc.a(fflush.o)
                0x000000000000597f                _fflush
 .text          0x00000000000059a4      0x150 /opt/parallax/lib/gcc/propeller-elf/4.6.1/../../../../propeller-elf/lib/cmm/short-doubles/libc.a(malloc.o)
                0x0000000000005a4f                __common_malloc
                0x0000000000005ac3                _hubmalloc
                0x0000000000005acf                _malloc
                0x0000000000005adb                _free
                0x0000000000005ae7                _hubfree
 .text          0x0000000000005af4       0x50 /opt/parallax/lib/gcc/propeller-elf/4.6.1/../../../../propeller-elf/lib/cmm/short-doubles/libc.a(atoi.o)
                0x0000000000005af4                _atoi
                0x0000000000005af4                _atol
 .text          0x0000000000005b44        0x8 /opt/parallax/lib/gcc/propeller-elf/4.6.1/../../../../propeller-elf/lib/cmm/short-doubles/libc.a(div.o)
                0x0000000000005b44                _ldiv
                0x0000000000005b44                _div
 .text          0x0000000000005b4c        0xc /opt/parallax/lib/gcc/propeller-elf/4.6.1/../../../../propeller-elf/lib/cmm/short-doubles/libc.a(sbrk.o)
                0x0000000000005b4c                _sbrk
                0x0000000000005b4c                __hubsbrk
                0x0000000000005b4c                __sbrk
 .text          0x0000000000005b58       0x1c /opt/parallax/lib/gcc/propeller-elf/4.6.1/../../../../propeller-elf/lib/cmm/short-doubles/libc.a(memcmp.o)
                0x0000000000005b58                _memcmp
 .text          0x0000000000005b74       0x1c /opt/parallax/lib/gcc/propeller-elf/4.6.1/../../../../propeller-elf/lib/cmm/short-doubles/libc.a(strcat.o)
                0x0000000000005b74                _strcat
 .text          0x0000000000005b90       0x68 /opt/parallax/lib/gcc/propeller-elf/4.6.1/../../../../propeller-elf/lib/cmm/short-doubles/libc.a(strcmp.o)
                0x0000000000005b90                _strcmp
 .text          0x0000000000005bf8       0x2c /opt/parallax/lib/gcc/propeller-elf/4.6.1/../../../../propeller-elf/lib/cmm/short-doubles/libc.a(strcpy.o)
                0x0000000000005bf8                _strcpy
 .text          0x0000000000005c24       0x54 /opt/parallax/lib/gcc/propeller-elf/4.6.1/../../../../propeller-elf/lib/cmm/short-doubles/libc.a(strncpy.o)
                0x0000000000005c24                _strncpy
                0x0000000000005c78                _etext = .

.cogsys1        0x0000000000000000      0x52c load address 0x0000000000005c78
 .cogsys1       0x0000000000000000      0x52c /opt/parallax/lib/gcc/propeller-elf/4.6.1/../../../../propeller-elf/lib/cmm/short-doubles/libc.a(sd_driver.o)

.fini           0x00000000000061a4       0x30
 *(.fini*)
 .fini          0x00000000000061a4       0x1c /opt/parallax/lib/gcc/propeller-elf/4.6.1/cmm/short-doubles/_crtbegin.o
                0x00000000000061a4                _exit
 .fini          0x00000000000061c0       0x14 /opt/parallax/lib/gcc/propeller-elf/4.6.1/cmm/short-doubles/_crtend.o
                0x00000000000061c2                __exit
                0x00000000000061c2                __Exit
                0x00000000000061ce                __ExitHook

.hub            0x00000000000061d4      0xc8c
 *(.hubstart)
 *(.hubtext*)
 .hubtext       0x00000000000061d4       0xec /home/alexis/dev/robotics/libs/Utility/libsimpletools/cmm//libsimpletools.a(i2c_in.o)
                0x00000000000061d4                _i2c_in
 .hubtext       0x00000000000062c0      0x27c /home/alexis/dev/robotics/libs/Protocol/libsimplei2c/cmm//libsimplei2c.a(simplei2c.o)
                0x0000000000006314                _i2c_start
                0x0000000000006377                _i2c_stop
                0x00000000000063b5                _i2c_open
                0x00000000000063e5                _i2c_writeByte
                0x0000000000006449                _i2c_readByte
                0x00000000000064d6                _i2c_writeData
                0x00000000000064fd                _i2c_readData
                0x0000000000006529                _i2c_poll
 .hubtext       0x000000000000653c      0x134 /opt/parallax/lib/gcc/propeller-elf/4.6.1/../../../../propeller-elf/lib/cmm/short-doubles/libc.a(terminal.o)
                0x000000000000653c                __term_write
                0x0000000000006588                __term_read
 .hubtext       0x0000000000006670       0x14 /opt/parallax/lib/gcc/propeller-elf/4.6.1/../../../../propeller-elf/lib/cmm/short-doubles/libc.a(file_io.o)
 *(.hubdata*)
 *(.hub)
 .hub           0x0000000000006684      0x200 /opt/parallax/lib/gcc/propeller-elf/4.6.1/../../../../propeller-elf/lib/cmm/short-doubles/libc.a(FileDriver.o)
                0x0000000000006684                _dfs_scratch
 .hub           0x0000000000006884        0x8 /opt/parallax/lib/gcc/propeller-elf/4.6.1/../../../../propeller-elf/lib/cmm/short-doubles/libc.a(file_io.o)
 .hub           0x000000000000688c        0x8 /opt/parallax/lib/gcc/propeller-elf/4.6.1/../../../../propeller-elf/lib/cmm/short-doubles/libc.a(load_sd_driver.o)
 *(.data)
 .data          0x0000000000006894       0x14 cmm/calcPos.o
 .data          0x00000000000068a8       0x44 /home/alexis/dev/robotics/libs/Utility/libsimpletools/cmm//libsimpletools.a(addfiledriver.o)
                0x00000000000068a8                __driverlist
                0x00000000000068e8                _DRIVER_LIST_SIZE
 .data          0x00000000000068ec        0x8 /opt/parallax/lib/gcc/propeller-elf/4.6.1/../../../../propeller-elf/lib/cmm/short-doubles/libm.a(k_sincosf.o)
 .data          0x00000000000068f4       0x20 /opt/parallax/lib/gcc/propeller-elf/4.6.1/../../../../propeller-elf/lib/cmm/short-doubles/libm.a(e_expf.o)
 .data          0x0000000000006914      0x398 /opt/parallax/lib/gcc/propeller-elf/4.6.1/../../../../propeller-elf/lib/cmm/short-doubles/libm.a(e_rem_pio2f.o)
 .data          0x0000000000006cac       0x40 /opt/parallax/lib/gcc/propeller-elf/4.6.1/../../../../propeller-elf/lib/cmm/short-doubles/libm.a(k_rem_pio2f.o)
 .data          0x0000000000006cec       0x10 /opt/parallax/lib/gcc/propeller-elf/4.6.1/../../../../propeller-elf/lib/cmm/short-doubles/libm.a(s_scalbnf.o)
 .data          0x0000000000006cfc        0xc /opt/parallax/lib/gcc/propeller-elf/4.6.1/../../../../propeller-elf/lib/cmm/short-doubles/libc.a(init_io.o)
 .data          0x0000000000006d08       0x2c /opt/parallax/lib/gcc/propeller-elf/4.6.1/../../../../propeller-elf/lib/cmm/short-doubles/libc.a(SimpleSerial.o)
                0x0000000000006d08                __SimpleSerialDriver
                0x0000000000006d2c                __SimpleSerialPrefix
 .data          0x0000000000006d34        0xc /opt/parallax/lib/gcc/propeller-elf/4.6.1/../../../../propeller-elf/lib/cmm/short-doubles/libc.a(serialparam.o)
                0x0000000000006d34                __baud
                0x0000000000006d38                __txpin
                0x0000000000006d3c                __rxpin
 .data          0x0000000000006d40       0x54 /opt/parallax/lib/gcc/propeller-elf/4.6.1/../../../../propeller-elf/lib/cmm/short-doubles/libc.a(FileDriver.o)
                0x0000000000006d64                __cfg_sdspi_config2
                0x0000000000006d68                __cfg_sdspi_config1
                0x0000000000006d6c                __FileDriver
 .data          0x0000000000006d94        0x8 /opt/parallax/lib/gcc/propeller-elf/4.6.1/../../../../propeller-elf/lib/cmm/short-doubles/libc.a(dosfs.o)
                0x0000000000006d94                _DefaultFileDate
                0x0000000000006d98                _DefaultFileTime
 .data          0x0000000000006d9c        0x4 /opt/parallax/lib/gcc/propeller-elf/4.6.1/../../../../propeller-elf/lib/cmm/short-doubles/libc.a(sd_driver.o)
                0x0000000000006d9c                _sd_driver_array
 .data          0x0000000000006da0       0x10 /opt/parallax/lib/gcc/propeller-elf/4.6.1/../../../../propeller-elf/lib/cmm/short-doubles/libc.a(malloc.o)
                0x0000000000006da0                __hub_malloc_heap
                0x0000000000006da8                __malloc_heap
 .data          0x0000000000006db0       0x84 /opt/parallax/lib/gcc/propeller-elf/4.6.1/../../../../propeller-elf/lib/cmm/short-doubles/libc.a(ctype.o)
                0x0000000000006db0                ___ctype
 .data          0x0000000000006e34        0x4 /opt/parallax/lib/gcc/propeller-elf/4.6.1/../../../../propeller-elf/lib/cmm/short-doubles/libc.a(sbrk.o)
                0x0000000000006e34                __heap_base
 *(.data*)
 .data.abd_ePinR
                0x0000000000006e38        0x4 /home/alexis/dev/robotics/libs/Robotics/ActivityBot/libabdrive/cmm/libabdrive.a(abdrive.o)
                0x0000000000006e38                _abd_ePinR
 .data.abd_ePinL
                0x0000000000006e3c        0x4 /home/alexis/dev/robotics/libs/Robotics/ActivityBot/libabdrive/cmm/libabdrive.a(abdrive.o)
                0x0000000000006e3c                _abd_ePinL
 .data.abd_sPinR
                0x0000000000006e40        0x4 /home/alexis/dev/robotics/libs/Robotics/ActivityBot/libabdrive/cmm/libabdrive.a(abdrive.o)
                0x0000000000006e40                _abd_sPinR
 .data.abd_sPinL
                0x0000000000006e44        0x4 /home/alexis/dev/robotics/libs/Robotics/ActivityBot/libabdrive/cmm/libabdrive.a(abdrive.o)
                0x0000000000006e44                _abd_sPinL
 .data.abd_dsr  0x0000000000006e48        0x4 /home/alexis/dev/robotics/libs/Robotics/ActivityBot/libabdrive/cmm/libabdrive.a(abdrive.o)
                0x0000000000006e48                _abd_dsr
 .data.abd_zeroDelay
                0x0000000000006e4c        0x4 /home/alexis/dev/robotics/libs/Robotics/ActivityBot/libabdrive/cmm/libabdrive.a(abdrive.o)
                0x0000000000006e4c                _abd_zeroDelay
 .data.abd_speedLimit
                0x0000000000006e50        0x4 /home/alexis/dev/robotics/libs/Robotics/ActivityBot/libabdrive/cmm/libabdrive.a(abdrive.o)
                0x0000000000006e50                _abd_speedLimit
 .data.encoderFeedback
                0x0000000000006e54        0x4 /home/alexis/dev/robotics/libs/Robotics/ActivityBot/libabdrive/cmm/libabdrive.a(abdrive.o)
 .data.trimFunction
                0x0000000000006e58        0x4 /home/alexis/dev/robotics/libs/Robotics/ActivityBot/libabdrive/cmm/libabdrive.a(abdrive.o)
 *(.rodata)
 *(.rodata*)
 *(.gnu.linkonce.d*)
                0x0000000000006e5c                PROVIDE (__C_LOCK, .)
                0x0000000000006e5c        0x4 LONG 0x0

.ctors          0x0000000000006e60        0xc
 *(.ctors*)
 .ctors         0x0000000000006e60        0x4 /home/alexis/dev/robotics/libs/Utility/libsimpletools/cmm//libsimpletools.a(timeTicks.o)
 .ctors         0x0000000000006e64        0x4 /opt/parallax/lib/gcc/propeller-elf/4.6.1/../../../../propeller-elf/lib/cmm/short-doubles/libc.a(init_io.o)
 .ctors         0x0000000000006e68        0x4 /opt/parallax/lib/gcc/propeller-elf/4.6.1/cmm/short-doubles/_crtend.o
                0x0000000000006e68                __environ
                0x0000000000006e68                __argv

.dtors          0x0000000000006e6c        0xc
 *(.dtors*)
 .dtors         0x0000000000006e6c        0x4 /opt/parallax/lib/gcc/propeller-elf/4.6.1/../../../../propeller-elf/lib/cmm/short-doubles/libc.a(fopen_intern.o)
 .dtors         0x0000000000006e70        0x4 /opt/parallax/lib/gcc/propeller-elf/4.6.1/../../../../propeller-elf/lib/cmm/short-doubles/libc.a(SimpleSerial.o)
 .dtors         0x0000000000006e74        0x4 /opt/parallax/lib/gcc/propeller-elf/4.6.1/cmm/short-doubles/_crtend.o

.data           0x0000000000006e78        0x0
                0x0000000000006e78                . = ALIGN (0x4)

.bss            0x0000000000006e78      0xf34
                0x0000000000006e78                PROVIDE (__bss_start, .)
 *(.bss)
 .bss           0x0000000000006e78       0x30 /home/alexis/dev/robotics/libs/Utility/libsimpletools/cmm//libsimpletools.a(sddriverconfig.o)
 .bss           0x0000000000006ea8      0x114 /home/alexis/dev/robotics/libs/Utility/libsimpletools/cmm//libsimpletools.a(squareWave.o)
 .bss           0x0000000000006fbc       0xa4 /home/alexis/dev/robotics/libs/Utility/libsimpletools/cmm//libsimpletools.a(i2c_init.o)
                0x0000000000006fbc                _st_buscnt
 .bss           0x0000000000007060       0x50 /opt/parallax/lib/gcc/propeller-elf/4.6.1/../../../../propeller-elf/lib/cmm/short-doubles/libc.a(init_io.o)
 .bss           0x00000000000070b0       0xa8 /opt/parallax/lib/gcc/propeller-elf/4.6.1/../../../../propeller-elf/lib/cmm/short-doubles/libc.a(thread.o)
                0x00000000000070b0                ___napuntil_ptr
 .bss           0x0000000000007158        0x4 /opt/parallax/lib/gcc/propeller-elf/4.6.1/../../../../propeller-elf/lib/cmm/short-doubles/libc.a(FileDriver.o)
                0x0000000000007158                _dfs_mountflag
 .bss           0x000000000000715c        0x4 /opt/parallax/lib/gcc/propeller-elf/4.6.1/../../../../propeller-elf/lib/cmm/short-doubles/libc.a(file_io.o)
                0x000000000000715c                __sd_mbox_p
 .bss           0x0000000000007160        0x4 /opt/parallax/lib/gcc/propeller-elf/4.6.1/../../../../propeller-elf/lib/cmm/short-doubles/libc.a(malloc.o)
 *(.bss*)
 .bss.phsRr     0x0000000000007164        0x4 /home/alexis/dev/robotics/libs/Robotics/ActivityBot/libabdrive/cmm/libabdrive.a(abdrive.o)
 .bss.phsLr     0x0000000000007168        0x4 /home/alexis/dev/robotics/libs/Robotics/ActivityBot/libabdrive/cmm/libabdrive.a(abdrive.o)
 .bss.phsR      0x000000000000716c        0x4 /home/alexis/dev/robotics/libs/Robotics/ActivityBot/libabdrive/cmm/libabdrive.a(abdrive.o)
 .bss.phsL      0x0000000000007170        0x4 /home/alexis/dev/robotics/libs/Robotics/ActivityBot/libabdrive/cmm/libabdrive.a(abdrive.o)
 .bss.driveR    0x0000000000007174        0x4 /home/alexis/dev/robotics/libs/Robotics/ActivityBot/libabdrive/cmm/libabdrive.a(abdrive.o)
 .bss.driveL    0x0000000000007178        0x4 /home/alexis/dev/robotics/libs/Robotics/ActivityBot/libabdrive/cmm/libabdrive.a(abdrive.o)
 .bss.ssiR      0x000000000000717c        0x4 /home/alexis/dev/robotics/libs/Robotics/ActivityBot/libabdrive/cmm/libabdrive.a(abdrive.o)
 .bss.ssiL      0x0000000000007180        0x4 /home/alexis/dev/robotics/libs/Robotics/ActivityBot/libabdrive/cmm/libabdrive.a(abdrive.o)
 .bss._sprOld   0x0000000000007184        0x4 /home/alexis/dev/robotics/libs/Robotics/ActivityBot/libabdrive/cmm/libabdrive.a(abdrive.o)
 .bss.pcount    0x0000000000007188        0x4 /home/alexis/dev/robotics/libs/Robotics/ActivityBot/libabdrive/cmm/libabdrive.a(abdrive.o)
 .bss.etpsL     0x000000000000718c        0x4 /home/alexis/dev/robotics/libs/Robotics/ActivityBot/libabdrive/cmm/libabdrive.a(abdrive.o)
 .bss.etpsR     0x0000000000007190        0x4 /home/alexis/dev/robotics/libs/Robotics/ActivityBot/libabdrive/cmm/libabdrive.a(abdrive.o)
 .bss.stateR    0x0000000000007194        0x4 /home/alexis/dev/robotics/libs/Robotics/ActivityBot/libabdrive/cmm/libabdrive.a(abdrive.o)
 .bss.stateL    0x0000000000007198        0x4 /home/alexis/dev/robotics/libs/Robotics/ActivityBot/libabdrive/cmm/libabdrive.a(abdrive.o)
 .bss.tiR       0x000000000000719c        0x4 /home/alexis/dev/robotics/libs/Robotics/ActivityBot/libabdrive/cmm/libabdrive.a(abdrive.o)
 .bss.tiL       0x00000000000071a0        0x4 /home/alexis/dev/robotics/libs/Robotics/ActivityBot/libabdrive/cmm/libabdrive.a(abdrive.o)
 .bss.trimticks
                0x00000000000071a4        0x4 /home/alexis/dev/robotics/libs/Robotics/ActivityBot/libabdrive/cmm/libabdrive.a(abdrive.o)
 .bss.dca       0x00000000000071a8        0x4 /home/alexis/dev/robotics/libs/Robotics/ActivityBot/libabdrive/cmm/libabdrive.a(abdrive.o)
 .bss.cntrRval  0x00000000000071ac        0x4 /home/alexis/dev/robotics/libs/Robotics/ActivityBot/libabdrive/cmm/libabdrive.a(abdrive.o)
 .bss.cntrLval  0x00000000000071b0        0x4 /home/alexis/dev/robotics/libs/Robotics/ActivityBot/libabdrive/cmm/libabdrive.a(abdrive.o)
 .bss.abd_intTabSetup
                0x00000000000071b4        0x4 /home/alexis/dev/robotics/libs/Robotics/ActivityBot/libabdrive/cmm/libabdrive.a(abdrive.o)
                0x00000000000071b4                _abd_intTabSetup
 .bss.abd_eaR   0x00000000000071b8        0x4 /home/alexis/dev/robotics/libs/Robotics/ActivityBot/libabdrive/cmm/libabdrive.a(abdrive.o)
                0x00000000000071b8                _abd_eaR
 .bss.abd_eaL   0x00000000000071bc        0x4 /home/alexis/dev/robotics/libs/Robotics/ActivityBot/libabdrive/cmm/libabdrive.a(abdrive.o)
                0x00000000000071bc                _abd_eaL
 .bss.abd_drca  0x00000000000071c0        0x4 /home/alexis/dev/robotics/libs/Robotics/ActivityBot/libabdrive/cmm/libabdrive.a(abdrive.o)
                0x00000000000071c0                _abd_drca
 .bss.abd_dlca  0x00000000000071c4        0x4 /home/alexis/dev/robotics/libs/Robotics/ActivityBot/libabdrive/cmm/libabdrive.a(abdrive.o)
                0x00000000000071c4                _abd_dlca
 .bss.abd_ticksR
                0x00000000000071c8        0x4 /home/alexis/dev/robotics/libs/Robotics/ActivityBot/libabdrive/cmm/libabdrive.a(abdrive.o)
                0x00000000000071c8                _abd_ticksR
 .bss.abd_ticksL
                0x00000000000071cc        0x4 /home/alexis/dev/robotics/libs/Robotics/ActivityBot/libabdrive/cmm/libabdrive.a(abdrive.o)
                0x00000000000071cc                _abd_ticksL
 .bss.abd_trimticksB
                0x00000000000071d0        0x4 /home/alexis/dev/robotics/libs/Robotics/ActivityBot/libabdrive/cmm/libabdrive.a(abdrive.o)
                0x00000000000071d0                _abd_trimticksB
 .bss.abd_trimticksF
                0x00000000000071d4        0x4 /home/alexis/dev/robotics/libs/Robotics/ActivityBot/libabdrive/cmm/libabdrive.a(abdrive.o)
                0x00000000000071d4                _abd_trimticksF
 .bss.cog       0x00000000000071d8        0x4 /home/alexis/dev/robotics/libs/Robotics/ActivityBot/libabdrive/cmm/libabdrive.a(abdrive.o)
 .bss.pwL       0x00000000000071dc        0x4 /home/alexis/dev/robotics/libs/Robotics/ActivityBot/libabdrive/cmm/libabdrive.a(abdrive.o)
 .bss.pwR       0x00000000000071e0        0x4 /home/alexis/dev/robotics/libs/Robotics/ActivityBot/libabdrive/cmm/libabdrive.a(abdrive.o)
 .bss.spdL      0x00000000000071e4        0x4 /home/alexis/dev/robotics/libs/Robotics/ActivityBot/libabdrive/cmm/libabdrive.a(abdrive.o)
 .bss.spdR      0x00000000000071e8        0x4 /home/alexis/dev/robotics/libs/Robotics/ActivityBot/libabdrive/cmm/libabdrive.a(abdrive.o)
 .bss.r         0x00000000000071ec        0x4 /home/alexis/dev/robotics/libs/Robotics/ActivityBot/libabdrive/cmm/libabdrive.a(abdrive.o)
 .bss.stack     0x00000000000071f0      0x180 /home/alexis/dev/robotics/libs/Robotics/ActivityBot/libabdrive/cmm/libabdrive.a(abdrive.o)
 .bss.speedLprev
                0x0000000000007370        0x4 /home/alexis/dev/robotics/libs/Robotics/ActivityBot/libabdrive/cmm/libabdrive.a(abdrive.o)
 .bss.speedRprev
                0x0000000000007374        0x4 /home/alexis/dev/robotics/libs/Robotics/ActivityBot/libabdrive/cmm/libabdrive.a(abdrive.o)
 *(COMMON)
 COMMON         0x0000000000007378        0x8 cmm/librobo.o
                0x0000000000007378                _totalerror
                0x000000000000737c                _preverror
 COMMON         0x0000000000007380       0x1c cmm/calcPos.o
                0x0000000000007380                _rticks
                0x0000000000007384                _angleTurned
                0x0000000000007388                _total_distance
                0x000000000000738c                _lticks
                0x0000000000007390                _current_pos
 COMMON         0x000000000000739c      0x7d4 /home/alexis/dev/robotics/libs/Robotics/ActivityBot/libabdrive/cmm/libabdrive.a(abdrive.o)
                0x000000000000739c                _abd_speedL
                0x00000000000073a0                _abd_cntrLidx
                0x00000000000073a4                _abd_drc
                0x00000000000073a8                _abd_us
                0x00000000000073ac                _abd_spdmL
                0x000000000000758c                __servoPulseReps
                0x0000000000007590                _abd_cntrRidx
                0x0000000000007594                _abd_spdrR
                0x0000000000007774                _abd_iR
                0x0000000000007778                _abd_pL
                0x000000000000777c                _abd_trimFL
                0x0000000000007780                _abd_trimBL
                0x0000000000007784                _abd_speedR
                0x0000000000007788                _abd_trimBR
                0x000000000000778c                _abd_edR
                0x0000000000007790                _abd_elCntR
                0x0000000000007794                _abd_edL
                0x0000000000007798                _abd_pR
                0x000000000000779c                _abd_trimFR
                0x00000000000077a0                _abd_elCntL
                0x00000000000077a4                _abd_iL
                0x00000000000077a8                _abd_spdmR
                0x0000000000007988                _abd_spdrL
                0x0000000000007b68                _abd_dlc
                0x0000000000007b6c                _abd_eeAddr
 COMMON         0x0000000000007b70        0x8 /home/alexis/dev/robotics/libs/Utility/libsimpletools/cmm//libsimpletools.a(eeprom_getByte.o)
                0x0000000000007b70                _st_eeprom
                0x0000000000007b74                _st_eeInitFlag
 COMMON         0x0000000000007b78       0x1c /home/alexis/dev/robotics/libs/Utility/libsimpletools/cmm//libsimpletools.a(timeTicks.o)
                0x0000000000007b78                _st_iodt
                0x0000000000007b7c                _us
                0x0000000000007b80                _st_usTicks
                0x0000000000007b84                _ms
                0x0000000000007b88                _st_timeout
                0x0000000000007b8c                _st_pauseTicks
                0x0000000000007b90                _st_msTicks
 COMMON         0x0000000000007b94      0x1a4 /opt/parallax/lib/gcc/propeller-elf/4.6.1/../../../../propeller-elf/lib/cmm/short-doubles/libc.a(fopen_intern.o)
                0x0000000000007b94                ___stdio_lock
                0x0000000000007b98                ___files
 COMMON         0x0000000000007d38       0x74 /opt/parallax/lib/gcc/propeller-elf/4.6.1/../../../../propeller-elf/lib/cmm/short-doubles/libc.a(FileDriver.o)
                0x0000000000007d38                _dfs_volinfo
                0x0000000000007d6c                _dfs_currdir
                0x0000000000007dac                PROVIDE (__bss_end, .)

.hub_heap       0x0000000000007dac        0x4
                0x0000000000007db0                . = (. + 0x4)
 *fill*         0x0000000000007dac        0x4 00
                0x0000000000007dac                ___hub_heap_start = ADDR (.hub_heap)

.drivers
 *(.drivers)
                0x0000000000000020                __load_start_kernel = LOADADDR (.lmmkernel)
                0x0000000000006e60                ___CTOR_LIST__ = ADDR (.ctors)
                0x0000000000006e6c                ___DTOR_LIST__ = ADDR (.dtors)

.hash
 *(.hash)

.dynsym
 *(.dynsym)

.dynstr
 *(.dynstr)

.gnu.version
 *(.gnu.version)

.gnu.version_d
 *(.gnu.version_d)

.gnu.version_r
 *(.gnu.version_r)

.rel.init
 *(.rel.init)

.rela.init
 *(.rela.init)

.rel.text
 *(.rel.text)
 *(.rel.text.*)
 *(.rel.gnu.linkonce.t*)

.rela.text
 *(.rela.text)
 *(.rela.text.*)
 *(.rela.gnu.linkonce.t*)

.rel.fini
 *(.rel.fini)

.rela.fini
 *(.rela.fini)

.rel.rodata
 *(.rel.rodata)
 *(.rel.rodata.*)
 *(.rel.gnu.linkonce.r*)

.rela.rodata
 *(.rela.rodata)
 *(.rela.rodata.*)
 *(.rela.gnu.linkonce.r*)

.rel.data
 *(.rel.data)
 *(.rel.data.*)
 *(.rel.gnu.linkonce.d*)

.rela.data
 *(.rela.data)
 *(.rela.data.*)
 *(.rela.gnu.linkonce.d*)

.rel.ctors
 *(.rel.ctors)

.rela.ctors
 *(.rela.ctors)

.rel.dtors
 *(.rel.dtors)

.rela.dtors
 *(.rela.dtors)

.rel.got
 *(.rel.got)

.rela.got
 *(.rela.got)

.rel.bss
 *(.rel.bss)

.rela.bss
 *(.rela.bss)

.rel.plt
 *(.rel.plt)

.rela.plt
 *(.rela.plt)

.stab
 *(.stab)

.stabstr
 *(.stabstr)

.stab.excl
 *(.stab.excl)

.stab.exclstr
 *(.stab.exclstr)

.stab.index
 *(.stab.index)

.stab.indexstr
 *(.stab.indexstr)

.comment
 *(.comment)

.debug
 *(.debug)

.line
 *(.line)

.debug_srcinfo
 *(.debug_srcinfo .zdebug_srcinfo)

.debug_sfnames
 *(.debug_sfnames .zdebug_sfnames)

.debug_aranges  0x0000000000000000      0x120
 *(.debug_aranges .zdebug_aranges)
 .debug_aranges
                0x0000000000000000       0x20 /opt/parallax/lib/gcc/propeller-elf/4.6.1/cmm/short-doubles/libgcc.a(addsf3.o)
 .debug_aranges
                0x0000000000000020       0x20 /opt/parallax/lib/gcc/propeller-elf/4.6.1/cmm/short-doubles/libgcc.a(divsf3.o)
 .debug_aranges
                0x0000000000000040       0x20 /opt/parallax/lib/gcc/propeller-elf/4.6.1/cmm/short-doubles/libgcc.a(eqsf2.o)
 .debug_aranges
                0x0000000000000060       0x20 /opt/parallax/lib/gcc/propeller-elf/4.6.1/cmm/short-doubles/libgcc.a(gesf2.o)
 .debug_aranges
                0x0000000000000080       0x20 /opt/parallax/lib/gcc/propeller-elf/4.6.1/cmm/short-doubles/libgcc.a(lesf2.o)
 .debug_aranges
                0x00000000000000a0       0x20 /opt/parallax/lib/gcc/propeller-elf/4.6.1/cmm/short-doubles/libgcc.a(mulsf3.o)
 .debug_aranges
                0x00000000000000c0       0x20 /opt/parallax/lib/gcc/propeller-elf/4.6.1/cmm/short-doubles/libgcc.a(subsf3.o)
 .debug_aranges
                0x00000000000000e0       0x20 /opt/parallax/lib/gcc/propeller-elf/4.6.1/cmm/short-doubles/libgcc.a(fixsfsi.o)
 .debug_aranges
                0x0000000000000100       0x20 /opt/parallax/lib/gcc/propeller-elf/4.6.1/cmm/short-doubles/libgcc.a(floatsisf.o)

.debug_pubnames
 *(.debug_pubnames .zdebug_pubnames)

.debug_info     0x0000000000000000     0x1e02
 *(.debug_info .gnu.linkonce.wi.* .zdebug_info)
 .debug_info    0x0000000000000000      0x3db /opt/parallax/lib/gcc/propeller-elf/4.6.1/cmm/short-doubles/libgcc.a(addsf3.o)
 .debug_info    0x00000000000003db      0x3b4 /opt/parallax/lib/gcc/propeller-elf/4.6.1/cmm/short-doubles/libgcc.a(divsf3.o)
 .debug_info    0x000000000000078f      0x2de /opt/parallax/lib/gcc/propeller-elf/4.6.1/cmm/short-doubles/libgcc.a(eqsf2.o)
 .debug_info    0x0000000000000a6d      0x316 /opt/parallax/lib/gcc/propeller-elf/4.6.1/cmm/short-doubles/libgcc.a(gesf2.o)
 .debug_info    0x0000000000000d83      0x316 /opt/parallax/lib/gcc/propeller-elf/4.6.1/cmm/short-doubles/libgcc.a(lesf2.o)
 .debug_info    0x0000000000001099      0x41b /opt/parallax/lib/gcc/propeller-elf/4.6.1/cmm/short-doubles/libgcc.a(mulsf3.o)
 .debug_info    0x00000000000014b4      0x3dd /opt/parallax/lib/gcc/propeller-elf/4.6.1/cmm/short-doubles/libgcc.a(subsf3.o)
 .debug_info    0x0000000000001891      0x2a2 /opt/parallax/lib/gcc/propeller-elf/4.6.1/cmm/short-doubles/libgcc.a(fixsfsi.o)
 .debug_info    0x0000000000001b33      0x2cf /opt/parallax/lib/gcc/propeller-elf/4.6.1/cmm/short-doubles/libgcc.a(floatsisf.o)

.debug_abbrev   0x0000000000000000      0x80c
 *(.debug_abbrev .zdebug_abbrev)
 .debug_abbrev  0x0000000000000000       0xeb /opt/parallax/lib/gcc/propeller-elf/4.6.1/cmm/short-doubles/libgcc.a(addsf3.o)
 .debug_abbrev  0x00000000000000eb       0xe9 /opt/parallax/lib/gcc/propeller-elf/4.6.1/cmm/short-doubles/libgcc.a(divsf3.o)
 .debug_abbrev  0x00000000000001d4       0xdc /opt/parallax/lib/gcc/propeller-elf/4.6.1/cmm/short-doubles/libgcc.a(eqsf2.o)
 .debug_abbrev  0x00000000000002b0       0xdc /opt/parallax/lib/gcc/propeller-elf/4.6.1/cmm/short-doubles/libgcc.a(gesf2.o)
 .debug_abbrev  0x000000000000038c       0xdc /opt/parallax/lib/gcc/propeller-elf/4.6.1/cmm/short-doubles/libgcc.a(lesf2.o)
 .debug_abbrev  0x0000000000000468       0xf0 /opt/parallax/lib/gcc/propeller-elf/4.6.1/cmm/short-doubles/libgcc.a(mulsf3.o)
 .debug_abbrev  0x0000000000000558       0xeb /opt/parallax/lib/gcc/propeller-elf/4.6.1/cmm/short-doubles/libgcc.a(subsf3.o)
 .debug_abbrev  0x0000000000000643       0xdc /opt/parallax/lib/gcc/propeller-elf/4.6.1/cmm/short-doubles/libgcc.a(fixsfsi.o)
 .debug_abbrev  0x000000000000071f       0xed /opt/parallax/lib/gcc/propeller-elf/4.6.1/cmm/short-doubles/libgcc.a(floatsisf.o)

.debug_line     0x0000000000000000      0xb4c
 *(.debug_line .zdebug_line)
 .debug_line    0x0000000000000000      0x276 /opt/parallax/lib/gcc/propeller-elf/4.6.1/cmm/short-doubles/libgcc.a(addsf3.o)
 .debug_line    0x0000000000000276      0x11b /opt/parallax/lib/gcc/propeller-elf/4.6.1/cmm/short-doubles/libgcc.a(divsf3.o)
 .debug_line    0x0000000000000391       0xc4 /opt/parallax/lib/gcc/propeller-elf/4.6.1/cmm/short-doubles/libgcc.a(eqsf2.o)
 .debug_line    0x0000000000000455       0xe9 /opt/parallax/lib/gcc/propeller-elf/4.6.1/cmm/short-doubles/libgcc.a(gesf2.o)
 .debug_line    0x000000000000053e       0xe9 /opt/parallax/lib/gcc/propeller-elf/4.6.1/cmm/short-doubles/libgcc.a(lesf2.o)
 .debug_line    0x0000000000000627      0x129 /opt/parallax/lib/gcc/propeller-elf/4.6.1/cmm/short-doubles/libgcc.a(mulsf3.o)
 .debug_line    0x0000000000000750      0x28d /opt/parallax/lib/gcc/propeller-elf/4.6.1/cmm/short-doubles/libgcc.a(subsf3.o)
 .debug_line    0x00000000000009dd       0xaa /opt/parallax/lib/gcc/propeller-elf/4.6.1/cmm/short-doubles/libgcc.a(fixsfsi.o)
 .debug_line    0x0000000000000a87       0xc5 /opt/parallax/lib/gcc/propeller-elf/4.6.1/cmm/short-doubles/libgcc.a(floatsisf.o)

.debug_frame    0x0000000000000000      0x15c
 *(.debug_frame .zdebug_frame)
 .debug_frame   0x0000000000000000       0x24 /opt/parallax/lib/gcc/propeller-elf/4.6.1/cmm/short-doubles/libgcc.a(addsf3.o)
 .debug_frame   0x0000000000000024       0x30 /opt/parallax/lib/gcc/propeller-elf/4.6.1/cmm/short-doubles/libgcc.a(divsf3.o)
 .debug_frame   0x0000000000000054       0x24 /opt/parallax/lib/gcc/propeller-elf/4.6.1/cmm/short-doubles/libgcc.a(eqsf2.o)
 .debug_frame   0x0000000000000078       0x24 /opt/parallax/lib/gcc/propeller-elf/4.6.1/cmm/short-doubles/libgcc.a(gesf2.o)
 .debug_frame   0x000000000000009c       0x24 /opt/parallax/lib/gcc/propeller-elf/4.6.1/cmm/short-doubles/libgcc.a(lesf2.o)
 .debug_frame   0x00000000000000c0       0x30 /opt/parallax/lib/gcc/propeller-elf/4.6.1/cmm/short-doubles/libgcc.a(mulsf3.o)
 .debug_frame   0x00000000000000f0       0x24 /opt/parallax/lib/gcc/propeller-elf/4.6.1/cmm/short-doubles/libgcc.a(subsf3.o)
 .debug_frame   0x0000000000000114       0x24 /opt/parallax/lib/gcc/propeller-elf/4.6.1/cmm/short-doubles/libgcc.a(fixsfsi.o)
 .debug_frame   0x0000000000000138       0x24 /opt/parallax/lib/gcc/propeller-elf/4.6.1/cmm/short-doubles/libgcc.a(floatsisf.o)

.debug_str
 *(.debug_str .zdebug_str)

.debug_loc      0x0000000000000000     0x1bd4
 *(.debug_loc .zdebug_loc)
 .debug_loc     0x0000000000000000      0x6f4 /opt/parallax/lib/gcc/propeller-elf/4.6.1/cmm/short-doubles/libgcc.a(addsf3.o)
 .debug_loc     0x00000000000006f4      0x4d1 /opt/parallax/lib/gcc/propeller-elf/4.6.1/cmm/short-doubles/libgcc.a(divsf3.o)
 .debug_loc     0x0000000000000bc5       0x95 /opt/parallax/lib/gcc/propeller-elf/4.6.1/cmm/short-doubles/libgcc.a(eqsf2.o)
 .debug_loc     0x0000000000000c5a       0xe1 /opt/parallax/lib/gcc/propeller-elf/4.6.1/cmm/short-doubles/libgcc.a(gesf2.o)
 .debug_loc     0x0000000000000d3b       0xe1 /opt/parallax/lib/gcc/propeller-elf/4.6.1/cmm/short-doubles/libgcc.a(lesf2.o)
 .debug_loc     0x0000000000000e1c      0x560 /opt/parallax/lib/gcc/propeller-elf/4.6.1/cmm/short-doubles/libgcc.a(mulsf3.o)
 .debug_loc     0x000000000000137c      0x6b5 /opt/parallax/lib/gcc/propeller-elf/4.6.1/cmm/short-doubles/libgcc.a(subsf3.o)
 .debug_loc     0x0000000000001a31       0xa9 /opt/parallax/lib/gcc/propeller-elf/4.6.1/cmm/short-doubles/libgcc.a(fixsfsi.o)
 .debug_loc     0x0000000000001ada       0xfa /opt/parallax/lib/gcc/propeller-elf/4.6.1/cmm/short-doubles/libgcc.a(floatsisf.o)

.debug_macinfo
 *(.debug_macinfo .zdebug_macinfo)
                0x00000000000007c0                PROVIDE (par, PAR)
                0x00000000000007c4                PROVIDE (cnt, CNT)
                0x00000000000007c8                PROVIDE (ina, INA)
                0x00000000000007cc                PROVIDE (inb, INB)
                0x00000000000007d0                PROVIDE (outa, OUTA)
                0x00000000000007d4                PROVIDE (outb, OUTB)
                0x00000000000007d8                PROVIDE (dira, DIRA)
                0x00000000000007dc                PROVIDE (dirb, DIRB)
                0x00000000000007e0                PROVIDE (ctra, CTRA)
                0x00000000000007e4                PROVIDE (ctrb, CTRB)
                0x00000000000007e8                PROVIDE (frqa, FRQA)
                0x00000000000007ec                PROVIDE (frqb, FRQB)
                0x00000000000007f0                PROVIDE (phsa, PHSA)
                0x00000000000007f4                PROVIDE (phsb, PHSB)
                0x00000000000007f8                PROVIDE (vcfg, VCFG)
                0x00000000000007fc                PROVIDE (vscl, VSCL)
                0x0000000000007dbc                PROVIDE (__hub_end, (ADDR (.hub_heap) + 0x10))
                0x0000000000008000                PROVIDE (__stack_end, 0x8000)
OUTPUT(cmm/1.elf elf32-propeller)

.debug_ranges   0x0000000000000000      0x318
 .debug_ranges  0x0000000000000000       0x78 /opt/parallax/lib/gcc/propeller-elf/4.6.1/cmm/short-doubles/libgcc.a(addsf3.o)
 .debug_ranges  0x0000000000000078       0x58 /opt/parallax/lib/gcc/propeller-elf/4.6.1/cmm/short-doubles/libgcc.a(divsf3.o)
 .debug_ranges  0x00000000000000d0       0x48 /opt/parallax/lib/gcc/propeller-elf/4.6.1/cmm/short-doubles/libgcc.a(eqsf2.o)
 .debug_ranges  0x0000000000000118       0x68 /opt/parallax/lib/gcc/propeller-elf/4.6.1/cmm/short-doubles/libgcc.a(gesf2.o)
 .debug_ranges  0x0000000000000180       0x68 /opt/parallax/lib/gcc/propeller-elf/4.6.1/cmm/short-doubles/libgcc.a(lesf2.o)
 .debug_ranges  0x00000000000001e8       0x78 /opt/parallax/lib/gcc/propeller-elf/4.6.1/cmm/short-doubles/libgcc.a(mulsf3.o)
 .debug_ranges  0x0000000000000260       0x80 /opt/parallax/lib/gcc/propeller-elf/4.6.1/cmm/short-doubles/libgcc.a(subsf3.o)
 .debug_ranges  0x00000000000002e0       0x38 /opt/parallax/lib/gcc/propeller-elf/4.6.1/cmm/short-doubles/libgcc.a(fixsfsi.o)
                0x0000000000005c78                PROVIDE (__load_start_cogsys1, LOADADDR (.cogsys1))
                0x00000000000061a4                PROVIDE (__load_stop_cogsys1, (LOADADDR (.cogsys1) + SIZEOF (.cogsys1)))
